ARM GAS  C:\Users\ologa\AppData\Local\Temp\ccpCyAf8.s 			page 1


   1              		.syntax unified
   2              		.cpu cortex-m3
   3              		.fpu softvfp
   4              		.eabi_attribute 20, 1
   5              		.eabi_attribute 21, 1
   6              		.eabi_attribute 23, 3
   7              		.eabi_attribute 24, 1
   8              		.eabi_attribute 25, 1
   9              		.eabi_attribute 26, 1
  10              		.eabi_attribute 30, 6
  11              		.eabi_attribute 34, 1
  12              		.eabi_attribute 18, 4
  13              		.thumb
  14              		.file	"cyfitter_cfg.c"
  15              		.text
  16              	.Ltext0:
  17              		.cfi_sections	.debug_frame
  18              		.section	.text.CYMEMZERO,"ax",%progbits
  19              		.align	2
  20              		.thumb
  21              		.thumb_func
  22              		.type	CYMEMZERO, %function
  23              	CYMEMZERO:
  24              	.LFB0:
  25              		.file 1 ".\\Generated_Source\\PSoC5\\cyfitter_cfg.c"
   1:.\Generated_Source\PSoC5/cyfitter_cfg.c **** /*******************************************************************************
   2:.\Generated_Source\PSoC5/cyfitter_cfg.c **** * File Name: cyfitter_cfg.c
   3:.\Generated_Source\PSoC5/cyfitter_cfg.c **** * 
   4:.\Generated_Source\PSoC5/cyfitter_cfg.c **** * PSoC Creator  3.3 CP3
   5:.\Generated_Source\PSoC5/cyfitter_cfg.c **** *
   6:.\Generated_Source\PSoC5/cyfitter_cfg.c **** * Description:
   7:.\Generated_Source\PSoC5/cyfitter_cfg.c **** * This file contains device initialization code.
   8:.\Generated_Source\PSoC5/cyfitter_cfg.c **** * Except for the user defined sections in CyClockStartupError(), this file should not be modified.
   9:.\Generated_Source\PSoC5/cyfitter_cfg.c **** * This file is automatically generated by PSoC Creator.
  10:.\Generated_Source\PSoC5/cyfitter_cfg.c **** *
  11:.\Generated_Source\PSoC5/cyfitter_cfg.c **** ********************************************************************************
  12:.\Generated_Source\PSoC5/cyfitter_cfg.c **** * Copyright (c) 2007-2016 Cypress Semiconductor.  All rights reserved.
  13:.\Generated_Source\PSoC5/cyfitter_cfg.c **** * You may use this file only in accordance with the license, terms, conditions, 
  14:.\Generated_Source\PSoC5/cyfitter_cfg.c **** * disclaimers, and limitations in the end user license agreement accompanying 
  15:.\Generated_Source\PSoC5/cyfitter_cfg.c **** * the software package with which this file was provided.
  16:.\Generated_Source\PSoC5/cyfitter_cfg.c **** ********************************************************************************/
  17:.\Generated_Source\PSoC5/cyfitter_cfg.c **** 
  18:.\Generated_Source\PSoC5/cyfitter_cfg.c **** #include <string.h>
  19:.\Generated_Source\PSoC5/cyfitter_cfg.c **** #include "cytypes.h"
  20:.\Generated_Source\PSoC5/cyfitter_cfg.c **** #include "cydevice_trm.h"
  21:.\Generated_Source\PSoC5/cyfitter_cfg.c **** #include "cyfitter.h"
  22:.\Generated_Source\PSoC5/cyfitter_cfg.c **** #include "CyLib.h"
  23:.\Generated_Source\PSoC5/cyfitter_cfg.c **** #include "cyfitter_cfg.h"
  24:.\Generated_Source\PSoC5/cyfitter_cfg.c **** 
  25:.\Generated_Source\PSoC5/cyfitter_cfg.c **** #define CY_NEED_CYCLOCKSTARTUPERROR 1
  26:.\Generated_Source\PSoC5/cyfitter_cfg.c **** 
  27:.\Generated_Source\PSoC5/cyfitter_cfg.c **** 
  28:.\Generated_Source\PSoC5/cyfitter_cfg.c **** #if defined(__GNUC__) || defined(__ARMCC_VERSION)
  29:.\Generated_Source\PSoC5/cyfitter_cfg.c ****     #define CYPACKED 
  30:.\Generated_Source\PSoC5/cyfitter_cfg.c ****     #define CYPACKED_ATTR __attribute__ ((packed))
  31:.\Generated_Source\PSoC5/cyfitter_cfg.c ****     #define CYALIGNED __attribute__ ((aligned))
  32:.\Generated_Source\PSoC5/cyfitter_cfg.c ****     #define CY_CFG_UNUSED __attribute__ ((unused))
ARM GAS  C:\Users\ologa\AppData\Local\Temp\ccpCyAf8.s 			page 2


  33:.\Generated_Source\PSoC5/cyfitter_cfg.c ****     #ifndef CY_CFG_SECTION
  34:.\Generated_Source\PSoC5/cyfitter_cfg.c ****         #define CY_CFG_SECTION __attribute__ ((section(".psocinit")))
  35:.\Generated_Source\PSoC5/cyfitter_cfg.c ****     #endif
  36:.\Generated_Source\PSoC5/cyfitter_cfg.c ****     
  37:.\Generated_Source\PSoC5/cyfitter_cfg.c ****     #if CYDEV_CONFIGURATION_DMA
  38:.\Generated_Source\PSoC5/cyfitter_cfg.c ****         #if (defined(__ARMCC_VERSION) || defined(__GNUC__))
  39:.\Generated_Source\PSoC5/cyfitter_cfg.c ****             #ifndef DMAINITSEC
  40:.\Generated_Source\PSoC5/cyfitter_cfg.c ****                 #define DMAINITSEC __attribute__ ((section(".dma_init")))
  41:.\Generated_Source\PSoC5/cyfitter_cfg.c ****             #endif
  42:.\Generated_Source\PSoC5/cyfitter_cfg.c ****         #elif defined(__ICCARM__)
  43:.\Generated_Source\PSoC5/cyfitter_cfg.c ****             #define DMAINITSEC _Pragma("location=\".dma_init\"")
  44:.\Generated_Source\PSoC5/cyfitter_cfg.c ****         #endif
  45:.\Generated_Source\PSoC5/cyfitter_cfg.c ****     #else
  46:.\Generated_Source\PSoC5/cyfitter_cfg.c ****         #define DMAINITSEC
  47:.\Generated_Source\PSoC5/cyfitter_cfg.c ****     #endif
  48:.\Generated_Source\PSoC5/cyfitter_cfg.c **** 
  49:.\Generated_Source\PSoC5/cyfitter_cfg.c ****     #if defined(__ARMCC_VERSION)
  50:.\Generated_Source\PSoC5/cyfitter_cfg.c ****         #define CY_CFG_MEMORY_BARRIER() __memory_changed()
  51:.\Generated_Source\PSoC5/cyfitter_cfg.c ****     #else
  52:.\Generated_Source\PSoC5/cyfitter_cfg.c ****         #define CY_CFG_MEMORY_BARRIER() __sync_synchronize()
  53:.\Generated_Source\PSoC5/cyfitter_cfg.c ****     #endif
  54:.\Generated_Source\PSoC5/cyfitter_cfg.c ****     
  55:.\Generated_Source\PSoC5/cyfitter_cfg.c **** #elif defined(__ICCARM__)
  56:.\Generated_Source\PSoC5/cyfitter_cfg.c ****     #include <intrinsics.h>
  57:.\Generated_Source\PSoC5/cyfitter_cfg.c **** 
  58:.\Generated_Source\PSoC5/cyfitter_cfg.c ****     #define CYPACKED __packed
  59:.\Generated_Source\PSoC5/cyfitter_cfg.c ****     #define CYPACKED_ATTR 
  60:.\Generated_Source\PSoC5/cyfitter_cfg.c ****     #define CYALIGNED _Pragma("data_alignment=4")
  61:.\Generated_Source\PSoC5/cyfitter_cfg.c ****     #define CY_CFG_UNUSED _Pragma("diag_suppress=Pe177")
  62:.\Generated_Source\PSoC5/cyfitter_cfg.c ****     #define CY_CFG_SECTION _Pragma("location=\".psocinit\"")
  63:.\Generated_Source\PSoC5/cyfitter_cfg.c ****     
  64:.\Generated_Source\PSoC5/cyfitter_cfg.c ****     #if CYDEV_CONFIGURATION_DMA
  65:.\Generated_Source\PSoC5/cyfitter_cfg.c ****         #if (defined(__ARMCC_VERSION) || defined(__GNUC__))
  66:.\Generated_Source\PSoC5/cyfitter_cfg.c ****             #ifndef DMAINITSEC
  67:.\Generated_Source\PSoC5/cyfitter_cfg.c ****                 #define DMAINITSEC __attribute__ ((section(".dma_init")))
  68:.\Generated_Source\PSoC5/cyfitter_cfg.c ****             #endif
  69:.\Generated_Source\PSoC5/cyfitter_cfg.c ****         #elif defined(__ICCARM__)
  70:.\Generated_Source\PSoC5/cyfitter_cfg.c ****             #define DMAINITSEC _Pragma("location=\".dma_init\"")
  71:.\Generated_Source\PSoC5/cyfitter_cfg.c ****         #endif
  72:.\Generated_Source\PSoC5/cyfitter_cfg.c ****     #else
  73:.\Generated_Source\PSoC5/cyfitter_cfg.c ****         #define DMAINITSEC
  74:.\Generated_Source\PSoC5/cyfitter_cfg.c ****     #endif
  75:.\Generated_Source\PSoC5/cyfitter_cfg.c **** 
  76:.\Generated_Source\PSoC5/cyfitter_cfg.c ****     #define CY_CFG_MEMORY_BARRIER() __DMB()
  77:.\Generated_Source\PSoC5/cyfitter_cfg.c ****     
  78:.\Generated_Source\PSoC5/cyfitter_cfg.c **** #else
  79:.\Generated_Source\PSoC5/cyfitter_cfg.c ****     #error Unsupported toolchain
  80:.\Generated_Source\PSoC5/cyfitter_cfg.c **** #endif
  81:.\Generated_Source\PSoC5/cyfitter_cfg.c **** 
  82:.\Generated_Source\PSoC5/cyfitter_cfg.c **** 
  83:.\Generated_Source\PSoC5/cyfitter_cfg.c **** CY_CFG_UNUSED
  84:.\Generated_Source\PSoC5/cyfitter_cfg.c **** static void CYMEMZERO(void *s, size_t n);
  85:.\Generated_Source\PSoC5/cyfitter_cfg.c **** CY_CFG_UNUSED
  86:.\Generated_Source\PSoC5/cyfitter_cfg.c **** static void CYMEMZERO(void *s, size_t n)
  87:.\Generated_Source\PSoC5/cyfitter_cfg.c **** {
  26              		.loc 1 87 0
  27              		.cfi_startproc
ARM GAS  C:\Users\ologa\AppData\Local\Temp\ccpCyAf8.s 			page 3


  28              		@ args = 0, pretend = 0, frame = 8
  29              		@ frame_needed = 1, uses_anonymous_args = 0
  30 0000 80B5     		push	{r7, lr}
  31              		.cfi_def_cfa_offset 8
  32              		.cfi_offset 7, -8
  33              		.cfi_offset 14, -4
  34 0002 82B0     		sub	sp, sp, #8
  35              		.cfi_def_cfa_offset 16
  36 0004 00AF     		add	r7, sp, #0
  37              		.cfi_def_cfa_register 7
  38 0006 7860     		str	r0, [r7, #4]
  39 0008 3960     		str	r1, [r7]
  88:.\Generated_Source\PSoC5/cyfitter_cfg.c **** 	(void)memset(s, 0, n);
  40              		.loc 1 88 0
  41 000a 7868     		ldr	r0, [r7, #4]
  42 000c 0021     		movs	r1, #0
  43 000e 3A68     		ldr	r2, [r7]
  44 0010 FFF7FEFF 		bl	memset
  89:.\Generated_Source\PSoC5/cyfitter_cfg.c **** }
  45              		.loc 1 89 0
  46 0014 0837     		adds	r7, r7, #8
  47              		.cfi_def_cfa_offset 8
  48 0016 BD46     		mov	sp, r7
  49              		.cfi_def_cfa_register 13
  50              		@ sp needed
  51 0018 80BD     		pop	{r7, pc}
  52              		.cfi_endproc
  53              	.LFE0:
  54              		.size	CYMEMZERO, .-CYMEMZERO
  55 001a 00BF     		.section	.text.CYCONFIGCPY,"ax",%progbits
  56              		.align	2
  57              		.thumb
  58              		.thumb_func
  59              		.type	CYCONFIGCPY, %function
  60              	CYCONFIGCPY:
  61              	.LFB1:
  90:.\Generated_Source\PSoC5/cyfitter_cfg.c **** CY_CFG_UNUSED
  91:.\Generated_Source\PSoC5/cyfitter_cfg.c **** static void CYCONFIGCPY(void *dest, const void *src, size_t n);
  92:.\Generated_Source\PSoC5/cyfitter_cfg.c **** CY_CFG_UNUSED
  93:.\Generated_Source\PSoC5/cyfitter_cfg.c **** static void CYCONFIGCPY(void *dest, const void *src, size_t n)
  94:.\Generated_Source\PSoC5/cyfitter_cfg.c **** {
  62              		.loc 1 94 0
  63              		.cfi_startproc
  64              		@ args = 0, pretend = 0, frame = 16
  65              		@ frame_needed = 1, uses_anonymous_args = 0
  66 0000 80B5     		push	{r7, lr}
  67              		.cfi_def_cfa_offset 8
  68              		.cfi_offset 7, -8
  69              		.cfi_offset 14, -4
  70 0002 84B0     		sub	sp, sp, #16
  71              		.cfi_def_cfa_offset 24
  72 0004 00AF     		add	r7, sp, #0
  73              		.cfi_def_cfa_register 7
  74 0006 F860     		str	r0, [r7, #12]
  75 0008 B960     		str	r1, [r7, #8]
  76 000a 7A60     		str	r2, [r7, #4]
  95:.\Generated_Source\PSoC5/cyfitter_cfg.c **** 	(void)memcpy(dest, src, n);
ARM GAS  C:\Users\ologa\AppData\Local\Temp\ccpCyAf8.s 			page 4


  77              		.loc 1 95 0
  78 000c F868     		ldr	r0, [r7, #12]
  79 000e B968     		ldr	r1, [r7, #8]
  80 0010 7A68     		ldr	r2, [r7, #4]
  81 0012 FFF7FEFF 		bl	memcpy
  96:.\Generated_Source\PSoC5/cyfitter_cfg.c **** }
  82              		.loc 1 96 0
  83 0016 1037     		adds	r7, r7, #16
  84              		.cfi_def_cfa_offset 8
  85 0018 BD46     		mov	sp, r7
  86              		.cfi_def_cfa_register 13
  87              		@ sp needed
  88 001a 80BD     		pop	{r7, pc}
  89              		.cfi_endproc
  90              	.LFE1:
  91              		.size	CYCONFIGCPY, .-CYCONFIGCPY
  92              		.section	.text.CYCONFIGCPYCODE,"ax",%progbits
  93              		.align	2
  94              		.thumb
  95              		.thumb_func
  96              		.type	CYCONFIGCPYCODE, %function
  97              	CYCONFIGCPYCODE:
  98              	.LFB2:
  97:.\Generated_Source\PSoC5/cyfitter_cfg.c **** CY_CFG_UNUSED
  98:.\Generated_Source\PSoC5/cyfitter_cfg.c **** static void CYCONFIGCPYCODE(void *dest, const void *src, size_t n);
  99:.\Generated_Source\PSoC5/cyfitter_cfg.c **** CY_CFG_UNUSED
 100:.\Generated_Source\PSoC5/cyfitter_cfg.c **** static void CYCONFIGCPYCODE(void *dest, const void *src, size_t n)
 101:.\Generated_Source\PSoC5/cyfitter_cfg.c **** {
  99              		.loc 1 101 0
 100              		.cfi_startproc
 101              		@ args = 0, pretend = 0, frame = 16
 102              		@ frame_needed = 1, uses_anonymous_args = 0
 103 0000 80B5     		push	{r7, lr}
 104              		.cfi_def_cfa_offset 8
 105              		.cfi_offset 7, -8
 106              		.cfi_offset 14, -4
 107 0002 84B0     		sub	sp, sp, #16
 108              		.cfi_def_cfa_offset 24
 109 0004 00AF     		add	r7, sp, #0
 110              		.cfi_def_cfa_register 7
 111 0006 F860     		str	r0, [r7, #12]
 112 0008 B960     		str	r1, [r7, #8]
 113 000a 7A60     		str	r2, [r7, #4]
 102:.\Generated_Source\PSoC5/cyfitter_cfg.c **** 	(void)memcpy(dest, src, n);
 114              		.loc 1 102 0
 115 000c F868     		ldr	r0, [r7, #12]
 116 000e B968     		ldr	r1, [r7, #8]
 117 0010 7A68     		ldr	r2, [r7, #4]
 118 0012 FFF7FEFF 		bl	memcpy
 103:.\Generated_Source\PSoC5/cyfitter_cfg.c **** }
 119              		.loc 1 103 0
 120 0016 1037     		adds	r7, r7, #16
 121              		.cfi_def_cfa_offset 8
 122 0018 BD46     		mov	sp, r7
 123              		.cfi_def_cfa_register 13
 124              		@ sp needed
 125 001a 80BD     		pop	{r7, pc}
ARM GAS  C:\Users\ologa\AppData\Local\Temp\ccpCyAf8.s 			page 5


 126              		.cfi_endproc
 127              	.LFE2:
 128              		.size	CYCONFIGCPYCODE, .-CYCONFIGCPYCODE
 129              		.section	.text.CyClockStartupError,"ax",%progbits
 130              		.align	2
 131              		.thumb
 132              		.thumb_func
 133              		.type	CyClockStartupError, %function
 134              	CyClockStartupError:
 135              	.LFB3:
 104:.\Generated_Source\PSoC5/cyfitter_cfg.c **** 
 105:.\Generated_Source\PSoC5/cyfitter_cfg.c **** 
 106:.\Generated_Source\PSoC5/cyfitter_cfg.c **** 
 107:.\Generated_Source\PSoC5/cyfitter_cfg.c **** /* Clock startup error codes                                                   */
 108:.\Generated_Source\PSoC5/cyfitter_cfg.c **** #define CYCLOCKSTART_NO_ERROR    0u
 109:.\Generated_Source\PSoC5/cyfitter_cfg.c **** #define CYCLOCKSTART_XTAL_ERROR  1u
 110:.\Generated_Source\PSoC5/cyfitter_cfg.c **** #define CYCLOCKSTART_32KHZ_ERROR 2u
 111:.\Generated_Source\PSoC5/cyfitter_cfg.c **** #define CYCLOCKSTART_PLL_ERROR   3u
 112:.\Generated_Source\PSoC5/cyfitter_cfg.c **** 
 113:.\Generated_Source\PSoC5/cyfitter_cfg.c **** #ifdef CY_NEED_CYCLOCKSTARTUPERROR
 114:.\Generated_Source\PSoC5/cyfitter_cfg.c **** /*******************************************************************************
 115:.\Generated_Source\PSoC5/cyfitter_cfg.c **** * Function Name: CyClockStartupError
 116:.\Generated_Source\PSoC5/cyfitter_cfg.c **** ********************************************************************************
 117:.\Generated_Source\PSoC5/cyfitter_cfg.c **** * Summary:
 118:.\Generated_Source\PSoC5/cyfitter_cfg.c **** *  If an error is encountered during clock configuration (crystal startup error,
 119:.\Generated_Source\PSoC5/cyfitter_cfg.c **** *  PLL lock error, etc.), the system will end up here.  Unless reimplemented by
 120:.\Generated_Source\PSoC5/cyfitter_cfg.c **** *  the customer, this function will stop in an infinite loop.
 121:.\Generated_Source\PSoC5/cyfitter_cfg.c **** *
 122:.\Generated_Source\PSoC5/cyfitter_cfg.c **** * Parameters:
 123:.\Generated_Source\PSoC5/cyfitter_cfg.c **** *   void
 124:.\Generated_Source\PSoC5/cyfitter_cfg.c **** *
 125:.\Generated_Source\PSoC5/cyfitter_cfg.c **** * Return:
 126:.\Generated_Source\PSoC5/cyfitter_cfg.c **** *   void
 127:.\Generated_Source\PSoC5/cyfitter_cfg.c **** *
 128:.\Generated_Source\PSoC5/cyfitter_cfg.c **** *******************************************************************************/
 129:.\Generated_Source\PSoC5/cyfitter_cfg.c **** CY_CFG_UNUSED
 130:.\Generated_Source\PSoC5/cyfitter_cfg.c **** static void CyClockStartupError(uint8 errorCode);
 131:.\Generated_Source\PSoC5/cyfitter_cfg.c **** CY_CFG_UNUSED
 132:.\Generated_Source\PSoC5/cyfitter_cfg.c **** static void CyClockStartupError(uint8 errorCode)
 133:.\Generated_Source\PSoC5/cyfitter_cfg.c **** {
 136              		.loc 1 133 0
 137              		.cfi_startproc
 138              		@ args = 0, pretend = 0, frame = 8
 139              		@ frame_needed = 1, uses_anonymous_args = 0
 140              		@ link register save eliminated.
 141 0000 80B4     		push	{r7}
 142              		.cfi_def_cfa_offset 4
 143              		.cfi_offset 7, -4
 144 0002 83B0     		sub	sp, sp, #12
 145              		.cfi_def_cfa_offset 16
 146 0004 00AF     		add	r7, sp, #0
 147              		.cfi_def_cfa_register 7
 148 0006 0346     		mov	r3, r0
 149 0008 FB71     		strb	r3, [r7, #7]
 150              	.L5:
 134:.\Generated_Source\PSoC5/cyfitter_cfg.c ****     /* To remove the compiler warning if errorCode not used.                */
 135:.\Generated_Source\PSoC5/cyfitter_cfg.c ****     errorCode = errorCode;
ARM GAS  C:\Users\ologa\AppData\Local\Temp\ccpCyAf8.s 			page 6


 136:.\Generated_Source\PSoC5/cyfitter_cfg.c **** 
 137:.\Generated_Source\PSoC5/cyfitter_cfg.c ****     /* `#START CyClockStartupError` */
 138:.\Generated_Source\PSoC5/cyfitter_cfg.c **** 
 139:.\Generated_Source\PSoC5/cyfitter_cfg.c ****     /* If we have a clock startup error (bad MHz crystal, PLL lock, etc.),  */
 140:.\Generated_Source\PSoC5/cyfitter_cfg.c ****     /* we will end up here to allow the customer to implement something to  */
 141:.\Generated_Source\PSoC5/cyfitter_cfg.c ****     /* deal with the clock condition.                                       */
 142:.\Generated_Source\PSoC5/cyfitter_cfg.c **** 
 143:.\Generated_Source\PSoC5/cyfitter_cfg.c ****     /* `#END` */
 144:.\Generated_Source\PSoC5/cyfitter_cfg.c **** 
 145:.\Generated_Source\PSoC5/cyfitter_cfg.c ****     /* If nothing else, stop here since the clocks have not started         */
 146:.\Generated_Source\PSoC5/cyfitter_cfg.c ****     /* correctly.                                                           */
 147:.\Generated_Source\PSoC5/cyfitter_cfg.c ****     while(1) {}
 151              		.loc 1 147 0 discriminator 1
 152 000a FEE7     		b	.L5
 153              		.cfi_endproc
 154              	.LFE3:
 155              		.size	CyClockStartupError, .-CyClockStartupError
 156              		.section	.text.cfg_dma_init,"ax",%progbits
 157              		.align	2
 158              		.thumb
 159              		.thumb_func
 160              		.type	cfg_dma_init, %function
 161              	cfg_dma_init:
 162              	.LFB4:
 148:.\Generated_Source\PSoC5/cyfitter_cfg.c **** }
 149:.\Generated_Source\PSoC5/cyfitter_cfg.c **** #endif
 150:.\Generated_Source\PSoC5/cyfitter_cfg.c **** 
 151:.\Generated_Source\PSoC5/cyfitter_cfg.c **** /* IDMUX Address: CYREG_IDMUX_DRQ_CTL0 Size (bytes): 6 */
 152:.\Generated_Source\PSoC5/cyfitter_cfg.c **** #define BS_IDMUX_VAL ((const uint8 CYFAR *)0x48000000u)
 153:.\Generated_Source\PSoC5/cyfitter_cfg.c **** 
 154:.\Generated_Source\PSoC5/cyfitter_cfg.c **** /* IOPORT_1 Address: CYDEV_PRTDSI_PRT1_BASE Size (bytes): 7 */
 155:.\Generated_Source\PSoC5/cyfitter_cfg.c **** #define BS_IOPORT_1_VAL ((const uint8 CYFAR *)0x48000008u)
 156:.\Generated_Source\PSoC5/cyfitter_cfg.c **** 
 157:.\Generated_Source\PSoC5/cyfitter_cfg.c **** /* IOPORT_2 Address: CYDEV_PRTDSI_PRT2_BASE Size (bytes): 7 */
 158:.\Generated_Source\PSoC5/cyfitter_cfg.c **** #define BS_IOPORT_2_VAL ((const uint8 CYFAR *)0x48000010u)
 159:.\Generated_Source\PSoC5/cyfitter_cfg.c **** 
 160:.\Generated_Source\PSoC5/cyfitter_cfg.c **** /* IDMUX_IRQ Address: CYREG_IDMUX_IRQ_CTL0 Size (bytes): 8 */
 161:.\Generated_Source\PSoC5/cyfitter_cfg.c **** #define BS_IDMUX_IRQ_VAL ((const uint8 CYFAR *)0x48000018u)
 162:.\Generated_Source\PSoC5/cyfitter_cfg.c **** 
 163:.\Generated_Source\PSoC5/cyfitter_cfg.c **** /* TMR0 Address: CYREG_TMR0_CFG0 Size (bytes): 12 */
 164:.\Generated_Source\PSoC5/cyfitter_cfg.c **** #define BS_TMR0_VAL ((const uint8 CYFAR *)0x48000020u)
 165:.\Generated_Source\PSoC5/cyfitter_cfg.c **** 
 166:.\Generated_Source\PSoC5/cyfitter_cfg.c **** /* UDB_0_2_1_CONFIG Address: CYDEV_UCFG_B0_P4_U0_BASE Size (bytes): 128 */
 167:.\Generated_Source\PSoC5/cyfitter_cfg.c **** #define BS_UDB_0_2_1_CONFIG_VAL ((const uint8 CYFAR *)0x4800002Cu)
 168:.\Generated_Source\PSoC5/cyfitter_cfg.c **** 
 169:.\Generated_Source\PSoC5/cyfitter_cfg.c **** /* UDB_0_2_0_CONFIG Address: CYDEV_UCFG_B0_P4_U1_BASE Size (bytes): 128 */
 170:.\Generated_Source\PSoC5/cyfitter_cfg.c **** #define BS_UDB_0_2_0_CONFIG_VAL ((const uint8 CYFAR *)0x480000ACu)
 171:.\Generated_Source\PSoC5/cyfitter_cfg.c **** 
 172:.\Generated_Source\PSoC5/cyfitter_cfg.c **** /* UDB_0_3_0_CONFIG Address: CYDEV_UCFG_B0_P5_U0_BASE Size (bytes): 128 */
 173:.\Generated_Source\PSoC5/cyfitter_cfg.c **** #define BS_UDB_0_3_0_CONFIG_VAL ((const uint8 CYFAR *)0x4800012Cu)
 174:.\Generated_Source\PSoC5/cyfitter_cfg.c **** 
 175:.\Generated_Source\PSoC5/cyfitter_cfg.c **** /* UDB_0_3_1_CONFIG Address: CYDEV_UCFG_B0_P5_U1_BASE Size (bytes): 128 */
 176:.\Generated_Source\PSoC5/cyfitter_cfg.c **** #define BS_UDB_0_3_1_CONFIG_VAL ((const uint8 CYFAR *)0x480001ACu)
 177:.\Generated_Source\PSoC5/cyfitter_cfg.c **** 
 178:.\Generated_Source\PSoC5/cyfitter_cfg.c **** /* UDB_0_5_1_CONFIG Address: CYDEV_UCFG_B0_P7_U1_BASE Size (bytes): 128 */
 179:.\Generated_Source\PSoC5/cyfitter_cfg.c **** #define BS_UDB_0_5_1_CONFIG_VAL ((const uint8 CYFAR *)0x4800022Cu)
 180:.\Generated_Source\PSoC5/cyfitter_cfg.c **** 
ARM GAS  C:\Users\ologa\AppData\Local\Temp\ccpCyAf8.s 			page 7


 181:.\Generated_Source\PSoC5/cyfitter_cfg.c **** /* UDB_0_1_1_CONFIG Address: CYDEV_UCFG_B1_P4_U0_BASE Size (bytes): 128 */
 182:.\Generated_Source\PSoC5/cyfitter_cfg.c **** #define BS_UDB_0_1_1_CONFIG_VAL ((const uint8 CYFAR *)0x480002ACu)
 183:.\Generated_Source\PSoC5/cyfitter_cfg.c **** 
 184:.\Generated_Source\PSoC5/cyfitter_cfg.c **** /* UDB_0_1_0_CONFIG Address: CYDEV_UCFG_B1_P4_U1_BASE Size (bytes): 128 */
 185:.\Generated_Source\PSoC5/cyfitter_cfg.c **** #define BS_UDB_0_1_0_CONFIG_VAL ((const uint8 CYFAR *)0x4800032Cu)
 186:.\Generated_Source\PSoC5/cyfitter_cfg.c **** 
 187:.\Generated_Source\PSoC5/cyfitter_cfg.c **** /* UDB_0_0_0_CONFIG Address: CYDEV_UCFG_B1_P5_U0_BASE Size (bytes): 128 */
 188:.\Generated_Source\PSoC5/cyfitter_cfg.c **** #define BS_UDB_0_0_0_CONFIG_VAL ((const uint8 CYFAR *)0x480003ACu)
 189:.\Generated_Source\PSoC5/cyfitter_cfg.c **** 
 190:.\Generated_Source\PSoC5/cyfitter_cfg.c **** /* UDB_0_0_1_CONFIG Address: CYDEV_UCFG_B1_P5_U1_BASE Size (bytes): 128 */
 191:.\Generated_Source\PSoC5/cyfitter_cfg.c **** #define BS_UDB_0_0_1_CONFIG_VAL ((const uint8 CYFAR *)0x4800042Cu)
 192:.\Generated_Source\PSoC5/cyfitter_cfg.c **** 
 193:.\Generated_Source\PSoC5/cyfitter_cfg.c **** /* UWRK_B0_WRK_STATCTL_BITS Address: CYDEV_UWRK_UWRK8_B0_BASE + 0x00000070u Size (bytes): 32 */
 194:.\Generated_Source\PSoC5/cyfitter_cfg.c **** #define BS_UWRK_B0_WRK_STATCTL_BITS_VAL ((const uint8 CYFAR *)0x480004ACu)
 195:.\Generated_Source\PSoC5/cyfitter_cfg.c **** 
 196:.\Generated_Source\PSoC5/cyfitter_cfg.c **** /* UWRK_B1_WRK_STATCTL_BITS Address: CYDEV_UWRK_UWRK8_B1_BASE + 0x00000070u Size (bytes): 32 */
 197:.\Generated_Source\PSoC5/cyfitter_cfg.c **** #define BS_UWRK_B1_WRK_STATCTL_BITS_VAL ((const uint8 CYFAR *)0x480004CCu)
 198:.\Generated_Source\PSoC5/cyfitter_cfg.c **** 
 199:.\Generated_Source\PSoC5/cyfitter_cfg.c **** /* UCFG_BCTL1 Address: CYREG_BCTL1_MDCLK_EN Size (bytes): 16 */
 200:.\Generated_Source\PSoC5/cyfitter_cfg.c **** #define BS_UCFG_BCTL1_VAL ((const uint8 CYFAR *)0x480004ECu)
 201:.\Generated_Source\PSoC5/cyfitter_cfg.c **** 
 202:.\Generated_Source\PSoC5/cyfitter_cfg.c **** /* UCFG_BCTL0 Address: CYREG_BCTL0_MDCLK_EN Size (bytes): 16 */
 203:.\Generated_Source\PSoC5/cyfitter_cfg.c **** #define BS_UCFG_BCTL0_VAL ((const uint8 CYFAR *)0x480004FCu)
 204:.\Generated_Source\PSoC5/cyfitter_cfg.c **** 
 205:.\Generated_Source\PSoC5/cyfitter_cfg.c **** /* DSI0_0_HV_ROUTING Address: CYDEV_UCFG_DSI13_BASE + 0x00000080u Size (bytes): 128 */
 206:.\Generated_Source\PSoC5/cyfitter_cfg.c **** #define BS_DSI0_0_HV_ROUTING_VAL ((const uint8 CYFAR *)0x4800050Cu)
 207:.\Generated_Source\PSoC5/cyfitter_cfg.c **** 
 208:.\Generated_Source\PSoC5/cyfitter_cfg.c **** /* DSISWITCH_0_1 Address: CYDEV_UCFG_DSI12_BASE Size (bytes): 128 */
 209:.\Generated_Source\PSoC5/cyfitter_cfg.c **** #define BS_DSISWITCH_0_1_VAL ((const uint8 CYFAR *)0x4800058Cu)
 210:.\Generated_Source\PSoC5/cyfitter_cfg.c **** 
 211:.\Generated_Source\PSoC5/cyfitter_cfg.c **** /* DSI0_1_HV_ROUTING Address: CYDEV_UCFG_DSI12_BASE + 0x00000080u Size (bytes): 128 */
 212:.\Generated_Source\PSoC5/cyfitter_cfg.c **** #define BS_DSI0_1_HV_ROUTING_VAL ((const uint8 CYFAR *)0x4800060Cu)
 213:.\Generated_Source\PSoC5/cyfitter_cfg.c **** 
 214:.\Generated_Source\PSoC5/cyfitter_cfg.c **** /* DSI0_2_HV_ROUTING Address: CYDEV_UCFG_DSI7_BASE + 0x00000080u Size (bytes): 128 */
 215:.\Generated_Source\PSoC5/cyfitter_cfg.c **** #define BS_DSI0_2_HV_ROUTING_VAL ((const uint8 CYFAR *)0x4800068Cu)
 216:.\Generated_Source\PSoC5/cyfitter_cfg.c **** 
 217:.\Generated_Source\PSoC5/cyfitter_cfg.c **** /* DSI0_3_HV_ROUTING Address: CYDEV_UCFG_DSI6_BASE + 0x00000080u Size (bytes): 128 */
 218:.\Generated_Source\PSoC5/cyfitter_cfg.c **** #define BS_DSI0_3_HV_ROUTING_VAL ((const uint8 CYFAR *)0x4800070Cu)
 219:.\Generated_Source\PSoC5/cyfitter_cfg.c **** 
 220:.\Generated_Source\PSoC5/cyfitter_cfg.c **** /* DSISWITCH_0_4 Address: CYDEV_UCFG_DSI5_BASE Size (bytes): 128 */
 221:.\Generated_Source\PSoC5/cyfitter_cfg.c **** #define BS_DSISWITCH_0_4_VAL ((const uint8 CYFAR *)0x4800078Cu)
 222:.\Generated_Source\PSoC5/cyfitter_cfg.c **** 
 223:.\Generated_Source\PSoC5/cyfitter_cfg.c **** /* DSI0_4_HV_ROUTING Address: CYDEV_UCFG_DSI5_BASE + 0x00000080u Size (bytes): 128 */
 224:.\Generated_Source\PSoC5/cyfitter_cfg.c **** #define BS_DSI0_4_HV_ROUTING_VAL ((const uint8 CYFAR *)0x4800080Cu)
 225:.\Generated_Source\PSoC5/cyfitter_cfg.c **** 
 226:.\Generated_Source\PSoC5/cyfitter_cfg.c **** /* UDBSWITCH_0_0 Address: CYDEV_UCFG_B1_P5_ROUTE_BASE Size (bytes): 128 */
 227:.\Generated_Source\PSoC5/cyfitter_cfg.c **** #define BS_UDBSWITCH_0_0_VAL ((const uint8 CYFAR *)0x4800088Cu)
 228:.\Generated_Source\PSoC5/cyfitter_cfg.c **** 
 229:.\Generated_Source\PSoC5/cyfitter_cfg.c **** /* UDB_1_0_HV_ROUTING Address: CYDEV_UCFG_B1_P5_ROUTE_BASE + 0x00000080u Size (bytes): 128 */
 230:.\Generated_Source\PSoC5/cyfitter_cfg.c **** #define BS_UDB_1_0_HV_ROUTING_VAL ((const uint8 CYFAR *)0x4800090Cu)
 231:.\Generated_Source\PSoC5/cyfitter_cfg.c **** 
 232:.\Generated_Source\PSoC5/cyfitter_cfg.c **** /* UDBSWITCH_0_1 Address: CYDEV_UCFG_B1_P4_ROUTE_BASE Size (bytes): 128 */
 233:.\Generated_Source\PSoC5/cyfitter_cfg.c **** #define BS_UDBSWITCH_0_1_VAL ((const uint8 CYFAR *)0x4800098Cu)
 234:.\Generated_Source\PSoC5/cyfitter_cfg.c **** 
 235:.\Generated_Source\PSoC5/cyfitter_cfg.c **** /* UDB_1_1_HV_ROUTING Address: CYDEV_UCFG_B1_P4_ROUTE_BASE + 0x00000080u Size (bytes): 128 */
 236:.\Generated_Source\PSoC5/cyfitter_cfg.c **** #define BS_UDB_1_1_HV_ROUTING_VAL ((const uint8 CYFAR *)0x48000A0Cu)
 237:.\Generated_Source\PSoC5/cyfitter_cfg.c **** 
ARM GAS  C:\Users\ologa\AppData\Local\Temp\ccpCyAf8.s 			page 8


 238:.\Generated_Source\PSoC5/cyfitter_cfg.c **** /* UDBSWITCH_0_2 Address: CYDEV_UCFG_B0_P4_ROUTE_BASE Size (bytes): 128 */
 239:.\Generated_Source\PSoC5/cyfitter_cfg.c **** #define BS_UDBSWITCH_0_2_VAL ((const uint8 CYFAR *)0x48000A8Cu)
 240:.\Generated_Source\PSoC5/cyfitter_cfg.c **** 
 241:.\Generated_Source\PSoC5/cyfitter_cfg.c **** /* UDB_1_2_HV_ROUTING Address: CYDEV_UCFG_B0_P4_ROUTE_BASE + 0x00000080u Size (bytes): 128 */
 242:.\Generated_Source\PSoC5/cyfitter_cfg.c **** #define BS_UDB_1_2_HV_ROUTING_VAL ((const uint8 CYFAR *)0x48000B0Cu)
 243:.\Generated_Source\PSoC5/cyfitter_cfg.c **** 
 244:.\Generated_Source\PSoC5/cyfitter_cfg.c **** /* UDBSWITCH_0_3 Address: CYDEV_UCFG_B0_P5_ROUTE_BASE Size (bytes): 128 */
 245:.\Generated_Source\PSoC5/cyfitter_cfg.c **** #define BS_UDBSWITCH_0_3_VAL ((const uint8 CYFAR *)0x48000B8Cu)
 246:.\Generated_Source\PSoC5/cyfitter_cfg.c **** 
 247:.\Generated_Source\PSoC5/cyfitter_cfg.c **** /* UDB_1_3_HV_ROUTING Address: CYDEV_UCFG_B0_P5_ROUTE_BASE + 0x00000080u Size (bytes): 128 */
 248:.\Generated_Source\PSoC5/cyfitter_cfg.c **** #define BS_UDB_1_3_HV_ROUTING_VAL ((const uint8 CYFAR *)0x48000C0Cu)
 249:.\Generated_Source\PSoC5/cyfitter_cfg.c **** 
 250:.\Generated_Source\PSoC5/cyfitter_cfg.c **** /* UDB_1_4_HV_ROUTING Address: CYDEV_UCFG_B0_P6_ROUTE_BASE + 0x00000080u Size (bytes): 128 */
 251:.\Generated_Source\PSoC5/cyfitter_cfg.c **** #define BS_UDB_1_4_HV_ROUTING_VAL ((const uint8 CYFAR *)0x48000C8Cu)
 252:.\Generated_Source\PSoC5/cyfitter_cfg.c **** 
 253:.\Generated_Source\PSoC5/cyfitter_cfg.c **** /* UDB_2_4_HV_ROUTING Address: CYDEV_UCFG_B0_P1_ROUTE_BASE + 0x00000080u Size (bytes): 128 */
 254:.\Generated_Source\PSoC5/cyfitter_cfg.c **** #define BS_UDB_2_4_HV_ROUTING_VAL ((const uint8 CYFAR *)0x48000D0Cu)
 255:.\Generated_Source\PSoC5/cyfitter_cfg.c **** 
 256:.\Generated_Source\PSoC5/cyfitter_cfg.c **** /* UDBSWITCH_0_5 Address: CYDEV_UCFG_B0_P7_ROUTE_BASE Size (bytes): 128 */
 257:.\Generated_Source\PSoC5/cyfitter_cfg.c **** #define BS_UDBSWITCH_0_5_VAL ((const uint8 CYFAR *)0x48000D8Cu)
 258:.\Generated_Source\PSoC5/cyfitter_cfg.c **** 
 259:.\Generated_Source\PSoC5/cyfitter_cfg.c **** /* DSISWITCH_1_3 Address: CYDEV_UCFG_DSI2_BASE Size (bytes): 128 */
 260:.\Generated_Source\PSoC5/cyfitter_cfg.c **** #define BS_DSISWITCH_1_3_VAL ((const uint8 CYFAR *)0x48000E0Cu)
 261:.\Generated_Source\PSoC5/cyfitter_cfg.c **** 
 262:.\Generated_Source\PSoC5/cyfitter_cfg.c **** /* DSI3_3_HV_ROUTING Address: CYDEV_UCFG_DSI2_BASE + 0x00000080u Size (bytes): 128 */
 263:.\Generated_Source\PSoC5/cyfitter_cfg.c **** #define BS_DSI3_3_HV_ROUTING_VAL ((const uint8 CYFAR *)0x48000E8Cu)
 264:.\Generated_Source\PSoC5/cyfitter_cfg.c **** 
 265:.\Generated_Source\PSoC5/cyfitter_cfg.c **** /* DSI3_4_HV_ROUTING Address: CYDEV_UCFG_DSI1_BASE + 0x00000080u Size (bytes): 128 */
 266:.\Generated_Source\PSoC5/cyfitter_cfg.c **** #define BS_DSI3_4_HV_ROUTING_VAL ((const uint8 CYFAR *)0x48000F0Cu)
 267:.\Generated_Source\PSoC5/cyfitter_cfg.c **** 
 268:.\Generated_Source\PSoC5/cyfitter_cfg.c **** /* DSISWITCH_1_5 Address: CYDEV_UCFG_DSI0_BASE Size (bytes): 128 */
 269:.\Generated_Source\PSoC5/cyfitter_cfg.c **** #define BS_DSISWITCH_1_5_VAL ((const uint8 CYFAR *)0x48000F8Cu)
 270:.\Generated_Source\PSoC5/cyfitter_cfg.c **** 
 271:.\Generated_Source\PSoC5/cyfitter_cfg.c **** /* DSI3_5_HV_ROUTING Address: CYDEV_UCFG_DSI0_BASE + 0x00000080u Size (bytes): 128 */
 272:.\Generated_Source\PSoC5/cyfitter_cfg.c **** #define BS_DSI3_5_HV_ROUTING_VAL ((const uint8 CYFAR *)0x4800100Cu)
 273:.\Generated_Source\PSoC5/cyfitter_cfg.c **** 
 274:.\Generated_Source\PSoC5/cyfitter_cfg.c **** /* IOPINS0_1 Address: CYREG_PRT1_DR Size (bytes): 10 */
 275:.\Generated_Source\PSoC5/cyfitter_cfg.c **** #define BS_IOPINS0_1_VAL ((const uint8 CYFAR *)0x4800108Cu)
 276:.\Generated_Source\PSoC5/cyfitter_cfg.c **** 
 277:.\Generated_Source\PSoC5/cyfitter_cfg.c **** /* IOPINS0_2 Address: CYREG_PRT2_DM0 Size (bytes): 8 */
 278:.\Generated_Source\PSoC5/cyfitter_cfg.c **** #define BS_IOPINS0_2_VAL ((const uint8 CYFAR *)0x48001098u)
 279:.\Generated_Source\PSoC5/cyfitter_cfg.c **** 
 280:.\Generated_Source\PSoC5/cyfitter_cfg.c **** 
 281:.\Generated_Source\PSoC5/cyfitter_cfg.c **** /*******************************************************************************
 282:.\Generated_Source\PSoC5/cyfitter_cfg.c **** * Function Name: cfg_dma_init
 283:.\Generated_Source\PSoC5/cyfitter_cfg.c **** ********************************************************************************
 284:.\Generated_Source\PSoC5/cyfitter_cfg.c **** * Summary:
 285:.\Generated_Source\PSoC5/cyfitter_cfg.c **** *  This function is used to copy device configuration data from constant values
 286:.\Generated_Source\PSoC5/cyfitter_cfg.c **** *  stored in memory into the proper chip configuration registers using DMA.  It
 287:.\Generated_Source\PSoC5/cyfitter_cfg.c **** *  pulls data out of the CFG_TD_LISTs to know exactly how/what to configure.
 288:.\Generated_Source\PSoC5/cyfitter_cfg.c **** *
 289:.\Generated_Source\PSoC5/cyfitter_cfg.c **** * Parameters:  
 290:.\Generated_Source\PSoC5/cyfitter_cfg.c **** *   void
 291:.\Generated_Source\PSoC5/cyfitter_cfg.c **** *
 292:.\Generated_Source\PSoC5/cyfitter_cfg.c **** * Return:
 293:.\Generated_Source\PSoC5/cyfitter_cfg.c **** *   void
 294:.\Generated_Source\PSoC5/cyfitter_cfg.c **** *
ARM GAS  C:\Users\ologa\AppData\Local\Temp\ccpCyAf8.s 			page 9


 295:.\Generated_Source\PSoC5/cyfitter_cfg.c **** *******************************************************************************/
 296:.\Generated_Source\PSoC5/cyfitter_cfg.c **** static void cfg_dma_init(void);
 297:.\Generated_Source\PSoC5/cyfitter_cfg.c **** static void cfg_dma_init(void)
 298:.\Generated_Source\PSoC5/cyfitter_cfg.c **** {
 163              		.loc 1 298 0
 164              		.cfi_startproc
 165              		@ args = 0, pretend = 0, frame = 8
 166              		@ frame_needed = 1, uses_anonymous_args = 0
 167 0000 80B5     		push	{r7, lr}
 168              		.cfi_def_cfa_offset 8
 169              		.cfi_offset 7, -8
 170              		.cfi_offset 14, -4
 171 0002 82B0     		sub	sp, sp, #8
 172              		.cfi_def_cfa_offset 16
 173 0004 00AF     		add	r7, sp, #0
 174              		.cfi_def_cfa_register 7
 299:.\Generated_Source\PSoC5/cyfitter_cfg.c **** 	/* TD structure for little-endian systems. Does not require endian swap */
 300:.\Generated_Source\PSoC5/cyfitter_cfg.c **** 	CYPACKED struct td_t {
 301:.\Generated_Source\PSoC5/cyfitter_cfg.c **** 		uint16 size;
 302:.\Generated_Source\PSoC5/cyfitter_cfg.c **** 		uint8 next_td_ptr;
 303:.\Generated_Source\PSoC5/cyfitter_cfg.c **** 		uint8 flags;
 304:.\Generated_Source\PSoC5/cyfitter_cfg.c **** 		uint16 src;
 305:.\Generated_Source\PSoC5/cyfitter_cfg.c **** 		uint16 dest;
 306:.\Generated_Source\PSoC5/cyfitter_cfg.c **** 	} CYPACKED_ATTR;
 307:.\Generated_Source\PSoC5/cyfitter_cfg.c **** 
 308:.\Generated_Source\PSoC5/cyfitter_cfg.c **** 	/* PHUB_CH1_CFGMEM_CFG0/1 initialization data */
 309:.\Generated_Source\PSoC5/cyfitter_cfg.c **** 	DMAINITSEC static const uint8 CYCODE CH1_ADDR_DATA0[] = { 0x01u, 0x00u, 0x00u, 0x00u, 0x00u, 0x20u
 310:.\Generated_Source\PSoC5/cyfitter_cfg.c **** 
 311:.\Generated_Source\PSoC5/cyfitter_cfg.c **** 	/* PHUB_CH2_CFGMEM_CFG0/1 initialization data */
 312:.\Generated_Source\PSoC5/cyfitter_cfg.c **** 	DMAINITSEC static const uint8 CYCODE CH2_ADDR_DATA0[] = { 0x01u, 0x00u, 0x00u, 0x00u, 0x00u, 0x20u
 313:.\Generated_Source\PSoC5/cyfitter_cfg.c **** 
 314:.\Generated_Source\PSoC5/cyfitter_cfg.c **** 	/* PHUB_CH5_CFGMEM_CFG0/1 initialization data */
 315:.\Generated_Source\PSoC5/cyfitter_cfg.c **** 	DMAINITSEC static const uint8 CYCODE CH5_ADDR_DATA0[] = { 0x01u, 0x00u, 0x00u, 0x00u, 0x00u, 0x48u
 316:.\Generated_Source\PSoC5/cyfitter_cfg.c **** 
 317:.\Generated_Source\PSoC5/cyfitter_cfg.c **** 	/* PHUB_CH6_CFGMEM_CFG0/1 initialization data */
 318:.\Generated_Source\PSoC5/cyfitter_cfg.c **** 	DMAINITSEC static const uint8 CYCODE CH6_ADDR_DATA0[] = { 0x01u, 0x00u, 0x00u, 0x00u, 0x00u, 0x48u
 319:.\Generated_Source\PSoC5/cyfitter_cfg.c **** 
 320:.\Generated_Source\PSoC5/cyfitter_cfg.c **** 	/* Initialization data for each DMA channel's TD registers */
 321:.\Generated_Source\PSoC5/cyfitter_cfg.c **** 	DMAINITSEC static const uint8 CYCODE DMA_TD_START_CMD[] = { 0x01u, 0x00u, 0x00u, 0x00u, 0x01u };
 322:.\Generated_Source\PSoC5/cyfitter_cfg.c **** 
 323:.\Generated_Source\PSoC5/cyfitter_cfg.c **** 	CYALIGNED static uint32 CYXDATA DMA_ZERO_VAL;
 324:.\Generated_Source\PSoC5/cyfitter_cfg.c **** 
 325:.\Generated_Source\PSoC5/cyfitter_cfg.c **** 	/* This table holds all of the initialization data necessary for the DMA
 326:.\Generated_Source\PSoC5/cyfitter_cfg.c **** 	   process to transfer data from the source location to the destination. */
 327:.\Generated_Source\PSoC5/cyfitter_cfg.c **** 	/* Source addresses can be relocated, but only when in 32bit addresses.
 328:.\Generated_Source\PSoC5/cyfitter_cfg.c **** 	   Because the standard TD table only has 16bit addresses, we generate a
 329:.\Generated_Source\PSoC5/cyfitter_cfg.c **** 	   separate CFG_TD_ADDR table for the source addresses that supports 32bit
 330:.\Generated_Source\PSoC5/cyfitter_cfg.c **** 	   addresses. */
 331:.\Generated_Source\PSoC5/cyfitter_cfg.c **** 	DMAINITSEC static const struct td_t CYCODE CFG_TD_LIST0[] = {
 332:.\Generated_Source\PSoC5/cyfitter_cfg.c **** 		/* Size, Next, Flags, Source, Destination */
 333:.\Generated_Source\PSoC5/cyfitter_cfg.c **** 		{ 8u, 0x02u, 0x23u, (uint16)(uint32)(0u), (uint16)(CYREG_PHUB_CFGMEM1_CFG0) },	/* TD 1 */
 334:.\Generated_Source\PSoC5/cyfitter_cfg.c **** 		{ 8u, 0x03u, 0x23u, (uint16)(uint32)(0u), (uint16)(CYREG_PHUB_CFGMEM2_CFG0) },	/* TD 2 */
 335:.\Generated_Source\PSoC5/cyfitter_cfg.c **** 		{ 8u, 0x04u, 0x23u, (uint16)(uint32)(0u), (uint16)(CYREG_PHUB_CFGMEM5_CFG0) },	/* TD 3 */
 336:.\Generated_Source\PSoC5/cyfitter_cfg.c **** 		{ 8u, 0x05u, 0x23u, (uint16)(uint32)(0u), (uint16)(CYREG_PHUB_CFGMEM6_CFG0) },	/* TD 4 */
 337:.\Generated_Source\PSoC5/cyfitter_cfg.c **** 		{ 5u, 0x06u, 0x23u, (uint16)(uint32)(0u), (uint16)(CYREG_PHUB_CH1_BASIC_CFG) },	/* TD 5 */
 338:.\Generated_Source\PSoC5/cyfitter_cfg.c **** 		{ 5u, 0x07u, 0x23u, (uint16)(uint32)(0u), (uint16)(CYREG_PHUB_CH2_BASIC_CFG) },	/* TD 6 */
 339:.\Generated_Source\PSoC5/cyfitter_cfg.c **** 		{ 5u, 0x08u, 0x23u, (uint16)(uint32)(0u), (uint16)(CYREG_PHUB_CH5_BASIC_CFG) },	/* TD 7 */
ARM GAS  C:\Users\ologa\AppData\Local\Temp\ccpCyAf8.s 			page 10


 340:.\Generated_Source\PSoC5/cyfitter_cfg.c **** 		{ 5u, 0xFEu, 0x23u, (uint16)(uint32)(0u), (uint16)(CYREG_PHUB_CH6_BASIC_CFG) },	/* TD 8 */
 341:.\Generated_Source\PSoC5/cyfitter_cfg.c **** 		{ 16u, 0x0Au, 0x22u, (uint16)(uint32)(0u), (uint16)(CYREG_PRT0_DR) },	/* TD 9 */
 342:.\Generated_Source\PSoC5/cyfitter_cfg.c **** 		{ 64u, 0x0Bu, 0x22u, (uint16)(uint32)(0u), (uint16)(CYREG_PRT3_DR) },	/* TD 10 */
 343:.\Generated_Source\PSoC5/cyfitter_cfg.c **** 		{ 16u, 0x0Cu, 0x22u, (uint16)(uint32)(0u), (uint16)(CYREG_PRT12_DR) },	/* TD 11 */
 344:.\Generated_Source\PSoC5/cyfitter_cfg.c **** 		{ 16u, 0xFEu, 0x22u, (uint16)(uint32)(0u), (uint16)(CYREG_PRT15_DR) },	/* TD 12 */
 345:.\Generated_Source\PSoC5/cyfitter_cfg.c **** 		{ 896u, 0x0Eu, 0x22u, (uint16)(uint32)(0u), (uint16)(CYDEV_UCFG_B0_P0_U0_BASE) },	/* TD 13 */
 346:.\Generated_Source\PSoC5/cyfitter_cfg.c **** 		{ 1024u, 0x0Fu, 0x22u, (uint16)(uint32)(0u), (uint16)(CYDEV_UCFG_B0_P2_U0_BASE) },	/* TD 14 */
 347:.\Generated_Source\PSoC5/cyfitter_cfg.c **** 		{ 384u, 0x10u, 0x22u, (uint16)(uint32)(0u), (uint16)(CYDEV_UCFG_B0_P6_U0_BASE) },	/* TD 15 */
 348:.\Generated_Source\PSoC5/cyfitter_cfg.c **** 		{ 128u, 0x11u, 0x22u, (uint16)(uint32)(0u), (uint16)(CYDEV_UCFG_B0_P7_U0_BASE) },	/* TD 16 */
 349:.\Generated_Source\PSoC5/cyfitter_cfg.c **** 		{ 128u, 0x12u, 0x22u, (uint16)(uint32)(0u), (uint16)(CYDEV_UCFG_B0_P7_ROUTE_BASE + 0x00000080u) }
 350:.\Generated_Source\PSoC5/cyfitter_cfg.c **** 		{ 1024u, 0x13u, 0x22u, (uint16)(uint32)(0u), (uint16)(CYDEV_UCFG_B1_P2_U0_BASE) },	/* TD 18 */
 351:.\Generated_Source\PSoC5/cyfitter_cfg.c **** 		{ 128u, 0x14u, 0x22u, (uint16)(uint32)(0u), (uint16)(CYDEV_UCFG_DSI1_BASE) },	/* TD 19 */
 352:.\Generated_Source\PSoC5/cyfitter_cfg.c **** 		{ 512u, 0x15u, 0x22u, (uint16)(uint32)(0u), (uint16)(CYDEV_UCFG_DSI3_BASE) },	/* TD 20 */
 353:.\Generated_Source\PSoC5/cyfitter_cfg.c **** 		{ 128u, 0x16u, 0x22u, (uint16)(uint32)(0u), (uint16)(CYDEV_UCFG_DSI6_BASE) },	/* TD 21 */
 354:.\Generated_Source\PSoC5/cyfitter_cfg.c **** 		{ 128u, 0x17u, 0x22u, (uint16)(uint32)(0u), (uint16)(CYDEV_UCFG_DSI7_BASE) },	/* TD 22 */
 355:.\Generated_Source\PSoC5/cyfitter_cfg.c **** 		{ 512u, 0x18u, 0x22u, (uint16)(uint32)(0u), (uint16)(CYDEV_UCFG_DSI8_BASE) },	/* TD 23 */
 356:.\Generated_Source\PSoC5/cyfitter_cfg.c **** 		{ 128u, 0xFEu, 0x22u, (uint16)(uint32)(0u), (uint16)(CYDEV_UCFG_DSI13_BASE) },	/* TD 24 */
 357:.\Generated_Source\PSoC5/cyfitter_cfg.c **** 		{ 7u, 0x1Au, 0x23u, (uint16)(uint32)(0u), (uint16)(CYDEV_PRTDSI_PRT1_BASE) },	/* TD 25 */
 358:.\Generated_Source\PSoC5/cyfitter_cfg.c **** 		{ 7u, 0x1Bu, 0x23u, (uint16)(uint32)(0u), (uint16)(CYDEV_PRTDSI_PRT2_BASE) },	/* TD 26 */
 359:.\Generated_Source\PSoC5/cyfitter_cfg.c **** 		{ 12u, 0x1Cu, 0x23u, (uint16)(uint32)(0u), (uint16)(CYREG_TMR0_CFG0) },	/* TD 27 */
 360:.\Generated_Source\PSoC5/cyfitter_cfg.c **** 		{ 32u, 0x1Du, 0x23u, (uint16)(uint32)(0u), (uint16)(CYDEV_UWRK_UWRK8_B0_BASE + 0x00000070u) },	/*
 361:.\Generated_Source\PSoC5/cyfitter_cfg.c **** 		{ 32u, 0xFEu, 0x23u, (uint16)(uint32)(0u), (uint16)(CYDEV_UWRK_UWRK8_B1_BASE + 0x00000070u) },	/*
 362:.\Generated_Source\PSoC5/cyfitter_cfg.c **** 		{ 8u, 0x1Fu, 0x23u, (uint16)(uint32)(0u), (uint16)(CYREG_IDMUX_IRQ_CTL0) },	/* TD 30 */
 363:.\Generated_Source\PSoC5/cyfitter_cfg.c **** 		{ 128u, 0x20u, 0x23u, (uint16)(uint32)(0u), (uint16)(CYDEV_UCFG_B0_P4_U0_BASE) },	/* TD 31 */
 364:.\Generated_Source\PSoC5/cyfitter_cfg.c **** 		{ 128u, 0x21u, 0x23u, (uint16)(uint32)(0u), (uint16)(CYDEV_UCFG_B0_P4_U1_BASE) },	/* TD 32 */
 365:.\Generated_Source\PSoC5/cyfitter_cfg.c **** 		{ 128u, 0x22u, 0x23u, (uint16)(uint32)(0u), (uint16)(CYDEV_UCFG_B0_P5_U0_BASE) },	/* TD 33 */
 366:.\Generated_Source\PSoC5/cyfitter_cfg.c **** 		{ 128u, 0x23u, 0x23u, (uint16)(uint32)(0u), (uint16)(CYDEV_UCFG_B0_P5_U1_BASE) },	/* TD 34 */
 367:.\Generated_Source\PSoC5/cyfitter_cfg.c **** 		{ 128u, 0x24u, 0x23u, (uint16)(uint32)(0u), (uint16)(CYDEV_UCFG_B0_P7_U1_BASE) },	/* TD 35 */
 368:.\Generated_Source\PSoC5/cyfitter_cfg.c **** 		{ 128u, 0x25u, 0x23u, (uint16)(uint32)(0u), (uint16)(CYDEV_UCFG_B1_P4_U0_BASE) },	/* TD 36 */
 369:.\Generated_Source\PSoC5/cyfitter_cfg.c **** 		{ 128u, 0x26u, 0x23u, (uint16)(uint32)(0u), (uint16)(CYDEV_UCFG_B1_P4_U1_BASE) },	/* TD 37 */
 370:.\Generated_Source\PSoC5/cyfitter_cfg.c **** 		{ 128u, 0x27u, 0x23u, (uint16)(uint32)(0u), (uint16)(CYDEV_UCFG_B1_P5_U0_BASE) },	/* TD 38 */
 371:.\Generated_Source\PSoC5/cyfitter_cfg.c **** 		{ 128u, 0x28u, 0x23u, (uint16)(uint32)(0u), (uint16)(CYDEV_UCFG_B1_P5_U1_BASE) },	/* TD 39 */
 372:.\Generated_Source\PSoC5/cyfitter_cfg.c **** 		{ 16u, 0x29u, 0x23u, (uint16)(uint32)(0u), (uint16)(CYREG_BCTL1_MDCLK_EN) },	/* TD 40 */
 373:.\Generated_Source\PSoC5/cyfitter_cfg.c **** 		{ 16u, 0x2Au, 0x23u, (uint16)(uint32)(0u), (uint16)(CYREG_BCTL0_MDCLK_EN) },	/* TD 41 */
 374:.\Generated_Source\PSoC5/cyfitter_cfg.c **** 		{ 128u, 0x2Bu, 0x23u, (uint16)(uint32)(0u), (uint16)(CYDEV_UCFG_DSI13_BASE + 0x00000080u) },	/* T
 375:.\Generated_Source\PSoC5/cyfitter_cfg.c **** 		{ 128u, 0x2Cu, 0x23u, (uint16)(uint32)(0u), (uint16)(CYDEV_UCFG_DSI12_BASE) },	/* TD 43 */
 376:.\Generated_Source\PSoC5/cyfitter_cfg.c **** 		{ 128u, 0x2Du, 0x23u, (uint16)(uint32)(0u), (uint16)(CYDEV_UCFG_DSI12_BASE + 0x00000080u) },	/* T
 377:.\Generated_Source\PSoC5/cyfitter_cfg.c **** 		{ 128u, 0x2Eu, 0x23u, (uint16)(uint32)(0u), (uint16)(CYDEV_UCFG_DSI7_BASE + 0x00000080u) },	/* TD
 378:.\Generated_Source\PSoC5/cyfitter_cfg.c **** 		{ 128u, 0x2Fu, 0x23u, (uint16)(uint32)(0u), (uint16)(CYDEV_UCFG_DSI6_BASE + 0x00000080u) },	/* TD
 379:.\Generated_Source\PSoC5/cyfitter_cfg.c **** 		{ 128u, 0x30u, 0x23u, (uint16)(uint32)(0u), (uint16)(CYDEV_UCFG_DSI5_BASE) },	/* TD 47 */
 380:.\Generated_Source\PSoC5/cyfitter_cfg.c **** 		{ 128u, 0x31u, 0x23u, (uint16)(uint32)(0u), (uint16)(CYDEV_UCFG_DSI5_BASE + 0x00000080u) },	/* TD
 381:.\Generated_Source\PSoC5/cyfitter_cfg.c **** 		{ 128u, 0x32u, 0x23u, (uint16)(uint32)(0u), (uint16)(CYDEV_UCFG_B1_P5_ROUTE_BASE) },	/* TD 49 */
 382:.\Generated_Source\PSoC5/cyfitter_cfg.c **** 		{ 128u, 0x33u, 0x23u, (uint16)(uint32)(0u), (uint16)(CYDEV_UCFG_B1_P5_ROUTE_BASE + 0x00000080u) }
 383:.\Generated_Source\PSoC5/cyfitter_cfg.c **** 		{ 128u, 0x34u, 0x23u, (uint16)(uint32)(0u), (uint16)(CYDEV_UCFG_B1_P4_ROUTE_BASE) },	/* TD 51 */
 384:.\Generated_Source\PSoC5/cyfitter_cfg.c **** 		{ 128u, 0x35u, 0x23u, (uint16)(uint32)(0u), (uint16)(CYDEV_UCFG_B1_P4_ROUTE_BASE + 0x00000080u) }
 385:.\Generated_Source\PSoC5/cyfitter_cfg.c **** 		{ 128u, 0x36u, 0x23u, (uint16)(uint32)(0u), (uint16)(CYDEV_UCFG_B0_P4_ROUTE_BASE) },	/* TD 53 */
 386:.\Generated_Source\PSoC5/cyfitter_cfg.c **** 		{ 128u, 0x37u, 0x23u, (uint16)(uint32)(0u), (uint16)(CYDEV_UCFG_B0_P4_ROUTE_BASE + 0x00000080u) }
 387:.\Generated_Source\PSoC5/cyfitter_cfg.c **** 		{ 128u, 0x38u, 0x23u, (uint16)(uint32)(0u), (uint16)(CYDEV_UCFG_B0_P5_ROUTE_BASE) },	/* TD 55 */
 388:.\Generated_Source\PSoC5/cyfitter_cfg.c **** 		{ 128u, 0x39u, 0x23u, (uint16)(uint32)(0u), (uint16)(CYDEV_UCFG_B0_P5_ROUTE_BASE + 0x00000080u) }
 389:.\Generated_Source\PSoC5/cyfitter_cfg.c **** 		{ 128u, 0x3Au, 0x23u, (uint16)(uint32)(0u), (uint16)(CYDEV_UCFG_B0_P6_ROUTE_BASE + 0x00000080u) }
 390:.\Generated_Source\PSoC5/cyfitter_cfg.c **** 		{ 128u, 0x3Bu, 0x23u, (uint16)(uint32)(0u), (uint16)(CYDEV_UCFG_B0_P1_ROUTE_BASE + 0x00000080u) }
 391:.\Generated_Source\PSoC5/cyfitter_cfg.c **** 		{ 128u, 0x3Cu, 0x23u, (uint16)(uint32)(0u), (uint16)(CYDEV_UCFG_B0_P7_ROUTE_BASE) },	/* TD 59 */
 392:.\Generated_Source\PSoC5/cyfitter_cfg.c **** 		{ 128u, 0x3Du, 0x23u, (uint16)(uint32)(0u), (uint16)(CYDEV_UCFG_DSI2_BASE) },	/* TD 60 */
 393:.\Generated_Source\PSoC5/cyfitter_cfg.c **** 		{ 128u, 0x3Eu, 0x23u, (uint16)(uint32)(0u), (uint16)(CYDEV_UCFG_DSI2_BASE + 0x00000080u) },	/* TD
 394:.\Generated_Source\PSoC5/cyfitter_cfg.c **** 		{ 128u, 0x3Fu, 0x23u, (uint16)(uint32)(0u), (uint16)(CYDEV_UCFG_DSI1_BASE + 0x00000080u) },	/* TD
 395:.\Generated_Source\PSoC5/cyfitter_cfg.c **** 		{ 128u, 0x40u, 0x23u, (uint16)(uint32)(0u), (uint16)(CYDEV_UCFG_DSI0_BASE) },	/* TD 63 */
 396:.\Generated_Source\PSoC5/cyfitter_cfg.c **** 		{ 128u, 0xFEu, 0x23u, (uint16)(uint32)(0u), (uint16)(CYDEV_UCFG_DSI0_BASE + 0x00000080u) },	/* TD
ARM GAS  C:\Users\ologa\AppData\Local\Temp\ccpCyAf8.s 			page 11


 397:.\Generated_Source\PSoC5/cyfitter_cfg.c **** 	};
 398:.\Generated_Source\PSoC5/cyfitter_cfg.c **** 
 399:.\Generated_Source\PSoC5/cyfitter_cfg.c **** 	/* Source addresses can be relocated, but only when in 32bit addresses.
 400:.\Generated_Source\PSoC5/cyfitter_cfg.c **** 	   Because the standard TD table only has 16bit addresses, we generate a
 401:.\Generated_Source\PSoC5/cyfitter_cfg.c **** 	   separate table for the source addresses that does use 32bit addresses. This
 402:.\Generated_Source\PSoC5/cyfitter_cfg.c **** 	   table will be re-merged with the corresponding CFG_TD_LIST table during
 403:.\Generated_Source\PSoC5/cyfitter_cfg.c **** 	   initialization. */
 404:.\Generated_Source\PSoC5/cyfitter_cfg.c **** 	static const void * const CFG_TD_ADDR0[] = {
 405:.\Generated_Source\PSoC5/cyfitter_cfg.c **** 		(const void *)(CH1_ADDR_DATA0),	/* TD 1 */
 406:.\Generated_Source\PSoC5/cyfitter_cfg.c **** 		(const void *)(CH2_ADDR_DATA0),	/* TD 2 */
 407:.\Generated_Source\PSoC5/cyfitter_cfg.c **** 		(const void *)(CH5_ADDR_DATA0),	/* TD 3 */
 408:.\Generated_Source\PSoC5/cyfitter_cfg.c **** 		(const void *)(CH6_ADDR_DATA0),	/* TD 4 */
 409:.\Generated_Source\PSoC5/cyfitter_cfg.c **** 		(const void *)(DMA_TD_START_CMD),	/* TD 5 */
 410:.\Generated_Source\PSoC5/cyfitter_cfg.c **** 		(const void *)(DMA_TD_START_CMD),	/* TD 6 */
 411:.\Generated_Source\PSoC5/cyfitter_cfg.c **** 		(const void *)(DMA_TD_START_CMD),	/* TD 7 */
 412:.\Generated_Source\PSoC5/cyfitter_cfg.c **** 		(const void *)(DMA_TD_START_CMD),	/* TD 8 */
 413:.\Generated_Source\PSoC5/cyfitter_cfg.c **** 		(const void *)(&DMA_ZERO_VAL),	/* TD 9 */
 414:.\Generated_Source\PSoC5/cyfitter_cfg.c **** 		(const void *)(&DMA_ZERO_VAL),	/* TD 10 */
 415:.\Generated_Source\PSoC5/cyfitter_cfg.c **** 		(const void *)(&DMA_ZERO_VAL),	/* TD 11 */
 416:.\Generated_Source\PSoC5/cyfitter_cfg.c **** 		(const void *)(&DMA_ZERO_VAL),	/* TD 12 */
 417:.\Generated_Source\PSoC5/cyfitter_cfg.c **** 		(const void *)(&DMA_ZERO_VAL),	/* TD 13 */
 418:.\Generated_Source\PSoC5/cyfitter_cfg.c **** 		(const void *)(&DMA_ZERO_VAL),	/* TD 14 */
 419:.\Generated_Source\PSoC5/cyfitter_cfg.c **** 		(const void *)(&DMA_ZERO_VAL),	/* TD 15 */
 420:.\Generated_Source\PSoC5/cyfitter_cfg.c **** 		(const void *)(&DMA_ZERO_VAL),	/* TD 16 */
 421:.\Generated_Source\PSoC5/cyfitter_cfg.c **** 		(const void *)(&DMA_ZERO_VAL),	/* TD 17 */
 422:.\Generated_Source\PSoC5/cyfitter_cfg.c **** 		(const void *)(&DMA_ZERO_VAL),	/* TD 18 */
 423:.\Generated_Source\PSoC5/cyfitter_cfg.c **** 		(const void *)(&DMA_ZERO_VAL),	/* TD 19 */
 424:.\Generated_Source\PSoC5/cyfitter_cfg.c **** 		(const void *)(&DMA_ZERO_VAL),	/* TD 20 */
 425:.\Generated_Source\PSoC5/cyfitter_cfg.c **** 		(const void *)(&DMA_ZERO_VAL),	/* TD 21 */
 426:.\Generated_Source\PSoC5/cyfitter_cfg.c **** 		(const void *)(&DMA_ZERO_VAL),	/* TD 22 */
 427:.\Generated_Source\PSoC5/cyfitter_cfg.c **** 		(const void *)(&DMA_ZERO_VAL),	/* TD 23 */
 428:.\Generated_Source\PSoC5/cyfitter_cfg.c **** 		(const void *)(&DMA_ZERO_VAL),	/* TD 24 */
 429:.\Generated_Source\PSoC5/cyfitter_cfg.c **** 		(const void *)(BS_IOPORT_1_VAL),	/* TD 25 */
 430:.\Generated_Source\PSoC5/cyfitter_cfg.c **** 		(const void *)(BS_IOPORT_2_VAL),	/* TD 26 */
 431:.\Generated_Source\PSoC5/cyfitter_cfg.c **** 		(const void *)(BS_TMR0_VAL),	/* TD 27 */
 432:.\Generated_Source\PSoC5/cyfitter_cfg.c **** 		(const void *)(BS_UWRK_B0_WRK_STATCTL_BITS_VAL),	/* TD 28 */
 433:.\Generated_Source\PSoC5/cyfitter_cfg.c **** 		(const void *)(BS_UWRK_B1_WRK_STATCTL_BITS_VAL),	/* TD 29 */
 434:.\Generated_Source\PSoC5/cyfitter_cfg.c **** 		(const void *)(BS_IDMUX_IRQ_VAL),	/* TD 30 */
 435:.\Generated_Source\PSoC5/cyfitter_cfg.c **** 		(const void *)(BS_UDB_0_2_1_CONFIG_VAL),	/* TD 31 */
 436:.\Generated_Source\PSoC5/cyfitter_cfg.c **** 		(const void *)(BS_UDB_0_2_0_CONFIG_VAL),	/* TD 32 */
 437:.\Generated_Source\PSoC5/cyfitter_cfg.c **** 		(const void *)(BS_UDB_0_3_0_CONFIG_VAL),	/* TD 33 */
 438:.\Generated_Source\PSoC5/cyfitter_cfg.c **** 		(const void *)(BS_UDB_0_3_1_CONFIG_VAL),	/* TD 34 */
 439:.\Generated_Source\PSoC5/cyfitter_cfg.c **** 		(const void *)(BS_UDB_0_5_1_CONFIG_VAL),	/* TD 35 */
 440:.\Generated_Source\PSoC5/cyfitter_cfg.c **** 		(const void *)(BS_UDB_0_1_1_CONFIG_VAL),	/* TD 36 */
 441:.\Generated_Source\PSoC5/cyfitter_cfg.c **** 		(const void *)(BS_UDB_0_1_0_CONFIG_VAL),	/* TD 37 */
 442:.\Generated_Source\PSoC5/cyfitter_cfg.c **** 		(const void *)(BS_UDB_0_0_0_CONFIG_VAL),	/* TD 38 */
 443:.\Generated_Source\PSoC5/cyfitter_cfg.c **** 		(const void *)(BS_UDB_0_0_1_CONFIG_VAL),	/* TD 39 */
 444:.\Generated_Source\PSoC5/cyfitter_cfg.c **** 		(const void *)(BS_UCFG_BCTL1_VAL),	/* TD 40 */
 445:.\Generated_Source\PSoC5/cyfitter_cfg.c **** 		(const void *)(BS_UCFG_BCTL0_VAL),	/* TD 41 */
 446:.\Generated_Source\PSoC5/cyfitter_cfg.c **** 		(const void *)(BS_DSI0_0_HV_ROUTING_VAL),	/* TD 42 */
 447:.\Generated_Source\PSoC5/cyfitter_cfg.c **** 		(const void *)(BS_DSISWITCH_0_1_VAL),	/* TD 43 */
 448:.\Generated_Source\PSoC5/cyfitter_cfg.c **** 		(const void *)(BS_DSI0_1_HV_ROUTING_VAL),	/* TD 44 */
 449:.\Generated_Source\PSoC5/cyfitter_cfg.c **** 		(const void *)(BS_DSI0_2_HV_ROUTING_VAL),	/* TD 45 */
 450:.\Generated_Source\PSoC5/cyfitter_cfg.c **** 		(const void *)(BS_DSI0_3_HV_ROUTING_VAL),	/* TD 46 */
 451:.\Generated_Source\PSoC5/cyfitter_cfg.c **** 		(const void *)(BS_DSISWITCH_0_4_VAL),	/* TD 47 */
 452:.\Generated_Source\PSoC5/cyfitter_cfg.c **** 		(const void *)(BS_DSI0_4_HV_ROUTING_VAL),	/* TD 48 */
 453:.\Generated_Source\PSoC5/cyfitter_cfg.c **** 		(const void *)(BS_UDBSWITCH_0_0_VAL),	/* TD 49 */
ARM GAS  C:\Users\ologa\AppData\Local\Temp\ccpCyAf8.s 			page 12


 454:.\Generated_Source\PSoC5/cyfitter_cfg.c **** 		(const void *)(BS_UDB_1_0_HV_ROUTING_VAL),	/* TD 50 */
 455:.\Generated_Source\PSoC5/cyfitter_cfg.c **** 		(const void *)(BS_UDBSWITCH_0_1_VAL),	/* TD 51 */
 456:.\Generated_Source\PSoC5/cyfitter_cfg.c **** 		(const void *)(BS_UDB_1_1_HV_ROUTING_VAL),	/* TD 52 */
 457:.\Generated_Source\PSoC5/cyfitter_cfg.c **** 		(const void *)(BS_UDBSWITCH_0_2_VAL),	/* TD 53 */
 458:.\Generated_Source\PSoC5/cyfitter_cfg.c **** 		(const void *)(BS_UDB_1_2_HV_ROUTING_VAL),	/* TD 54 */
 459:.\Generated_Source\PSoC5/cyfitter_cfg.c **** 		(const void *)(BS_UDBSWITCH_0_3_VAL),	/* TD 55 */
 460:.\Generated_Source\PSoC5/cyfitter_cfg.c **** 		(const void *)(BS_UDB_1_3_HV_ROUTING_VAL),	/* TD 56 */
 461:.\Generated_Source\PSoC5/cyfitter_cfg.c **** 		(const void *)(BS_UDB_1_4_HV_ROUTING_VAL),	/* TD 57 */
 462:.\Generated_Source\PSoC5/cyfitter_cfg.c **** 		(const void *)(BS_UDB_2_4_HV_ROUTING_VAL),	/* TD 58 */
 463:.\Generated_Source\PSoC5/cyfitter_cfg.c **** 		(const void *)(BS_UDBSWITCH_0_5_VAL),	/* TD 59 */
 464:.\Generated_Source\PSoC5/cyfitter_cfg.c **** 		(const void *)(BS_DSISWITCH_1_3_VAL),	/* TD 60 */
 465:.\Generated_Source\PSoC5/cyfitter_cfg.c **** 		(const void *)(BS_DSI3_3_HV_ROUTING_VAL),	/* TD 61 */
 466:.\Generated_Source\PSoC5/cyfitter_cfg.c **** 		(const void *)(BS_DSI3_4_HV_ROUTING_VAL),	/* TD 62 */
 467:.\Generated_Source\PSoC5/cyfitter_cfg.c **** 		(const void *)(BS_DSISWITCH_1_5_VAL),	/* TD 63 */
 468:.\Generated_Source\PSoC5/cyfitter_cfg.c **** 		(const void *)(BS_DSI3_5_HV_ROUTING_VAL),	/* TD 64 */
 469:.\Generated_Source\PSoC5/cyfitter_cfg.c **** 	};
 470:.\Generated_Source\PSoC5/cyfitter_cfg.c **** 
 471:.\Generated_Source\PSoC5/cyfitter_cfg.c **** 
 472:.\Generated_Source\PSoC5/cyfitter_cfg.c **** 	uint32 i;
 473:.\Generated_Source\PSoC5/cyfitter_cfg.c **** 
 474:.\Generated_Source\PSoC5/cyfitter_cfg.c **** 	DMA_ZERO_VAL = 0u;
 175              		.loc 1 474 0
 176 0006 454B     		ldr	r3, .L15
 177 0008 0022     		movs	r2, #0
 178 000a 1A60     		str	r2, [r3]
 475:.\Generated_Source\PSoC5/cyfitter_cfg.c **** 	CY_SET_REG8((void CYXDATA *)CYREG_PHUB_CFGMEM0_CFG0, 0x10u);	/* set burstcnt */
 179              		.loc 1 475 0
 180 000c 444B     		ldr	r3, .L15+4
 181 000e 1022     		movs	r2, #16
 182 0010 1A70     		strb	r2, [r3]
 476:.\Generated_Source\PSoC5/cyfitter_cfg.c **** 	CY_SET_REG8((void CYXDATA *)CYREG_PHUB_CH0_BASIC_CFG, 0x01u);	/* enable ch0 */
 183              		.loc 1 476 0
 184 0012 444B     		ldr	r3, .L15+8
 185 0014 0122     		movs	r2, #1
 186 0016 1A70     		strb	r2, [r3]
 477:.\Generated_Source\PSoC5/cyfitter_cfg.c **** 	CY_SET_REG8((void CYXDATA *)(CYREG_PHUB_CH0_BASIC_STATUS+1u), 0x00u);	/* set first TD to 0 */
 187              		.loc 1 477 0
 188 0018 434B     		ldr	r3, .L15+12
 189 001a 0022     		movs	r2, #0
 190 001c 1A70     		strb	r2, [r3]
 478:.\Generated_Source\PSoC5/cyfitter_cfg.c **** 	CY_SET_REG16((void CYXDATA *)CYREG_PHUB_TDMEM0_ORIG_TD0, 64u*8u);	/* transfer size */
 191              		.loc 1 478 0
 192 001e 434B     		ldr	r3, .L15+16
 193 0020 4FF40072 		mov	r2, #512
 194 0024 1A80     		strh	r2, [r3]	@ movhi
 479:.\Generated_Source\PSoC5/cyfitter_cfg.c **** 	CY_SET_REG8((void CYXDATA *)(CYREG_PHUB_TDMEM0_ORIG_TD0+2u), 0x01u);	/* set next TD to 1 */
 195              		.loc 1 479 0
 196 0026 424B     		ldr	r3, .L15+20
 197 0028 0122     		movs	r2, #1
 198 002a 1A70     		strb	r2, [r3]
 480:.\Generated_Source\PSoC5/cyfitter_cfg.c **** 	CY_SET_REG8((void CYXDATA *)(CYREG_PHUB_TDMEM0_ORIG_TD0+3u), 0x03u);	/* set TD flags */
 199              		.loc 1 480 0
 200 002c 414B     		ldr	r3, .L15+24
 201 002e 0322     		movs	r2, #3
 202 0030 1A70     		strb	r2, [r3]
 481:.\Generated_Source\PSoC5/cyfitter_cfg.c **** 	CY_SET_REG16((void CYXDATA *)CYREG_PHUB_TDMEM0_ORIG_TD1, (uint16)((uint32)CFG_TD_LIST0 & 0x0000FFF
 203              		.loc 1 481 0
ARM GAS  C:\Users\ologa\AppData\Local\Temp\ccpCyAf8.s 			page 13


 204 0032 414B     		ldr	r3, .L15+28
 205 0034 414A     		ldr	r2, .L15+32
 206 0036 92B2     		uxth	r2, r2
 207 0038 1A80     		strh	r2, [r3]	@ movhi
 482:.\Generated_Source\PSoC5/cyfitter_cfg.c **** 	CY_SET_REG16((void CYXDATA *)(CYREG_PHUB_TDMEM0_ORIG_TD1+2u), CYDEV_PHUB_TDMEM1_BASE);	/* set td0'
 208              		.loc 1 482 0
 209 003a 414B     		ldr	r3, .L15+36
 210 003c 47F60802 		movw	r2, #30728
 211 0040 1A80     		strh	r2, [r3]	@ movhi
 483:.\Generated_Source\PSoC5/cyfitter_cfg.c **** 	CY_SET_REG16((void CYXDATA *)CYREG_PHUB_CFGMEM0_CFG1, (uint16)(CYDEV_FLASH_BASE >> 16));	/* set ch
 212              		.loc 1 483 0
 213 0042 404B     		ldr	r3, .L15+40
 214 0044 0022     		movs	r2, #0
 215 0046 1A80     		strh	r2, [r3]	@ movhi
 484:.\Generated_Source\PSoC5/cyfitter_cfg.c **** 	CY_SET_REG16((void CYXDATA *)(CYREG_PHUB_CFGMEM0_CFG1+2u), (uint16)(CYDEV_PHUB_TDMEM1_BASE >> 16))
 216              		.loc 1 484 0
 217 0048 3F4B     		ldr	r3, .L15+44
 218 004a 4FF48042 		mov	r2, #16384
 219 004e 1A80     		strh	r2, [r3]	@ movhi
 485:.\Generated_Source\PSoC5/cyfitter_cfg.c **** 	CY_SET_REG8((void CYXDATA *)(CYREG_PHUB_CH1_BASIC_STATUS+1u), 0x09u);	/* ch1 first TD: 9 */
 220              		.loc 1 485 0
 221 0050 3E4B     		ldr	r3, .L15+48
 222 0052 0922     		movs	r2, #9
 223 0054 1A70     		strb	r2, [r3]
 486:.\Generated_Source\PSoC5/cyfitter_cfg.c **** 	CY_SET_REG8((void CYXDATA *)(CYREG_PHUB_CH2_BASIC_STATUS+1u), 0x0Du);	/* ch2 first TD: 13 */
 224              		.loc 1 486 0
 225 0056 3E4B     		ldr	r3, .L15+52
 226 0058 0D22     		movs	r2, #13
 227 005a 1A70     		strb	r2, [r3]
 487:.\Generated_Source\PSoC5/cyfitter_cfg.c **** 	CY_SET_REG8((void CYXDATA *)(CYREG_PHUB_CH5_BASIC_STATUS+1u), 0x19u);	/* ch5 first TD: 25 */
 228              		.loc 1 487 0
 229 005c 3D4B     		ldr	r3, .L15+56
 230 005e 1922     		movs	r2, #25
 231 0060 1A70     		strb	r2, [r3]
 488:.\Generated_Source\PSoC5/cyfitter_cfg.c **** 	CY_SET_REG8((void CYXDATA *)(CYREG_PHUB_CH6_BASIC_STATUS+1u), 0x1Eu);	/* ch6 first TD: 30 */
 232              		.loc 1 488 0
 233 0062 3D4B     		ldr	r3, .L15+60
 234 0064 1E22     		movs	r2, #30
 235 0066 1A70     		strb	r2, [r3]
 489:.\Generated_Source\PSoC5/cyfitter_cfg.c **** 
 490:.\Generated_Source\PSoC5/cyfitter_cfg.c **** 	CY_CFG_MEMORY_BARRIER();
 236              		.loc 1 490 0
 237 0068 BFF35F8F 		dmb	sy
 491:.\Generated_Source\PSoC5/cyfitter_cfg.c **** 	CY_SET_REG8((void CYXDATA *)CYREG_PHUB_CH0_ACTION, 0x01u); /* cpu_req */
 238              		.loc 1 491 0
 239 006c 3B4B     		ldr	r3, .L15+64
 240 006e 0122     		movs	r2, #1
 241 0070 1A70     		strb	r2, [r3]
 492:.\Generated_Source\PSoC5/cyfitter_cfg.c **** 	CY_CFG_MEMORY_BARRIER();
 242              		.loc 1 492 0
 243 0072 BFF35F8F 		dmb	sy
 493:.\Generated_Source\PSoC5/cyfitter_cfg.c **** 
 494:.\Generated_Source\PSoC5/cyfitter_cfg.c **** 	/* Wait for TDs to be copied into TDMEM */
 495:.\Generated_Source\PSoC5/cyfitter_cfg.c **** 	while (CY_GET_REG16((void CYXDATA *)CYREG_PHUB_TDMEM0_ORIG_TD0) != 0u) { }
 244              		.loc 1 495 0
 245 0076 00BF     		nop
 246              	.L7:
ARM GAS  C:\Users\ologa\AppData\Local\Temp\ccpCyAf8.s 			page 14


 247              		.loc 1 495 0 is_stmt 0 discriminator 1
 248 0078 2C4B     		ldr	r3, .L15+16
 249 007a 1B88     		ldrh	r3, [r3]	@ movhi
 250 007c 9BB2     		uxth	r3, r3
 251 007e 002B     		cmp	r3, #0
 252 0080 FAD1     		bne	.L7
 496:.\Generated_Source\PSoC5/cyfitter_cfg.c **** 
 497:.\Generated_Source\PSoC5/cyfitter_cfg.c **** 	/* Recombine TD source table (CFG_TD_ADDR0) with full TD table (CFG_TD_LIST0) */
 498:.\Generated_Source\PSoC5/cyfitter_cfg.c **** 	for (i = 0u; i < 64u; i++)
 253              		.loc 1 498 0 is_stmt 1
 254 0082 0023     		movs	r3, #0
 255 0084 7B60     		str	r3, [r7, #4]
 256 0086 0DE0     		b	.L8
 257              	.L9:
 499:.\Generated_Source\PSoC5/cyfitter_cfg.c **** 	{
 500:.\Generated_Source\PSoC5/cyfitter_cfg.c **** 		CY_SET_REG16((void CYXDATA *)(CYREG_PHUB_TDMEM1_ORIG_TD1 + (sizeof(struct td_t)*i)), (uint16)(uin
 258              		.loc 1 500 0 discriminator 3
 259 0088 7B68     		ldr	r3, [r7, #4]
 260 008a DA00     		lsls	r2, r3, #3
 261 008c 344B     		ldr	r3, .L15+68
 262 008e 1344     		add	r3, r3, r2
 263 0090 1946     		mov	r1, r3
 264 0092 344A     		ldr	r2, .L15+72
 265 0094 7B68     		ldr	r3, [r7, #4]
 266 0096 52F82330 		ldr	r3, [r2, r3, lsl #2]
 267 009a 9BB2     		uxth	r3, r3
 268 009c 0B80     		strh	r3, [r1]	@ movhi
 498:.\Generated_Source\PSoC5/cyfitter_cfg.c **** 	{
 269              		.loc 1 498 0 discriminator 3
 270 009e 7B68     		ldr	r3, [r7, #4]
 271 00a0 0133     		adds	r3, r3, #1
 272 00a2 7B60     		str	r3, [r7, #4]
 273              	.L8:
 498:.\Generated_Source\PSoC5/cyfitter_cfg.c **** 	{
 274              		.loc 1 498 0 is_stmt 0 discriminator 1
 275 00a4 7B68     		ldr	r3, [r7, #4]
 276 00a6 3F2B     		cmp	r3, #63
 277 00a8 EED9     		bls	.L9
 501:.\Generated_Source\PSoC5/cyfitter_cfg.c **** 	}
 502:.\Generated_Source\PSoC5/cyfitter_cfg.c **** 
 503:.\Generated_Source\PSoC5/cyfitter_cfg.c **** 	CY_CFG_MEMORY_BARRIER();
 278              		.loc 1 503 0 is_stmt 1
 279 00aa BFF35F8F 		dmb	sy
 504:.\Generated_Source\PSoC5/cyfitter_cfg.c **** 	CY_SET_REG8((void CYXDATA *)CYREG_PHUB_CH0_ACTION, 0x01u); /* cpu_req */
 280              		.loc 1 504 0
 281 00ae 2B4B     		ldr	r3, .L15+64
 282 00b0 0122     		movs	r2, #1
 283 00b2 1A70     		strb	r2, [r3]
 505:.\Generated_Source\PSoC5/cyfitter_cfg.c **** 	CY_CFG_MEMORY_BARRIER();
 284              		.loc 1 505 0
 285 00b4 BFF35F8F 		dmb	sy
 506:.\Generated_Source\PSoC5/cyfitter_cfg.c **** 
 507:.\Generated_Source\PSoC5/cyfitter_cfg.c **** 	/* Wait for all DMA transfers to complete */
 508:.\Generated_Source\PSoC5/cyfitter_cfg.c **** 	while(0u != (CY_GET_REG8((void CYXDATA *)CYREG_PHUB_CH0_BASIC_STATUS) & 0x01u)){}
 286              		.loc 1 508 0
 287 00b8 00BF     		nop
 288              	.L10:
ARM GAS  C:\Users\ologa\AppData\Local\Temp\ccpCyAf8.s 			page 15


 289              		.loc 1 508 0 is_stmt 0 discriminator 1
 290 00ba 2B4B     		ldr	r3, .L15+76
 291 00bc 1B78     		ldrb	r3, [r3]
 292 00be DBB2     		uxtb	r3, r3
 293 00c0 03F00103 		and	r3, r3, #1
 294 00c4 002B     		cmp	r3, #0
 295 00c6 F8D1     		bne	.L10
 509:.\Generated_Source\PSoC5/cyfitter_cfg.c **** 	while(0u != (CY_GET_REG8((void CYXDATA *)CYREG_PHUB_CH1_BASIC_STATUS) & 0x01u)){}
 296              		.loc 1 509 0 is_stmt 1
 297 00c8 00BF     		nop
 298              	.L11:
 299              		.loc 1 509 0 is_stmt 0 discriminator 1
 300 00ca 284B     		ldr	r3, .L15+80
 301 00cc 1B78     		ldrb	r3, [r3]
 302 00ce DBB2     		uxtb	r3, r3
 303 00d0 03F00103 		and	r3, r3, #1
 304 00d4 002B     		cmp	r3, #0
 305 00d6 F8D1     		bne	.L11
 510:.\Generated_Source\PSoC5/cyfitter_cfg.c **** 	while(0u != (CY_GET_REG8((void CYXDATA *)CYREG_PHUB_CH2_BASIC_STATUS) & 0x01u)){}
 306              		.loc 1 510 0 is_stmt 1
 307 00d8 00BF     		nop
 308              	.L12:
 309              		.loc 1 510 0 is_stmt 0 discriminator 1
 310 00da 254B     		ldr	r3, .L15+84
 311 00dc 1B78     		ldrb	r3, [r3]
 312 00de DBB2     		uxtb	r3, r3
 313 00e0 03F00103 		and	r3, r3, #1
 314 00e4 002B     		cmp	r3, #0
 315 00e6 F8D1     		bne	.L12
 511:.\Generated_Source\PSoC5/cyfitter_cfg.c **** 	while(0u != (CY_GET_REG8((void CYXDATA *)CYREG_PHUB_CH5_BASIC_STATUS) & 0x01u)){}
 316              		.loc 1 511 0 is_stmt 1
 317 00e8 00BF     		nop
 318              	.L13:
 319              		.loc 1 511 0 is_stmt 0 discriminator 1
 320 00ea 224B     		ldr	r3, .L15+88
 321 00ec 1B78     		ldrb	r3, [r3]
 322 00ee DBB2     		uxtb	r3, r3
 323 00f0 03F00103 		and	r3, r3, #1
 324 00f4 002B     		cmp	r3, #0
 325 00f6 F8D1     		bne	.L13
 512:.\Generated_Source\PSoC5/cyfitter_cfg.c **** 	while(0u != (CY_GET_REG8((void CYXDATA *)CYREG_PHUB_CH6_BASIC_STATUS) & 0x01u)){}
 326              		.loc 1 512 0 is_stmt 1
 327 00f8 00BF     		nop
 328              	.L14:
 329              		.loc 1 512 0 is_stmt 0 discriminator 1
 330 00fa 1F4B     		ldr	r3, .L15+92
 331 00fc 1B78     		ldrb	r3, [r3]
 332 00fe DBB2     		uxtb	r3, r3
 333 0100 03F00103 		and	r3, r3, #1
 334 0104 002B     		cmp	r3, #0
 335 0106 F8D1     		bne	.L14
 513:.\Generated_Source\PSoC5/cyfitter_cfg.c **** 
 514:.\Generated_Source\PSoC5/cyfitter_cfg.c **** 
 515:.\Generated_Source\PSoC5/cyfitter_cfg.c **** 	CYCONFIGCPY((void CYFAR *)(CYREG_IDMUX_DRQ_CTL0), (const void CYFAR *)(BS_IDMUX_VAL), 6u);
 336              		.loc 1 515 0 is_stmt 1
 337 0108 1C48     		ldr	r0, .L15+96
 338 010a 4FF09041 		mov	r1, #1207959552
ARM GAS  C:\Users\ologa\AppData\Local\Temp\ccpCyAf8.s 			page 16


 339 010e 0622     		movs	r2, #6
 340 0110 FFF7FEFF 		bl	CYCONFIGCPY
 516:.\Generated_Source\PSoC5/cyfitter_cfg.c **** 
 517:.\Generated_Source\PSoC5/cyfitter_cfg.c **** }
 341              		.loc 1 517 0
 342 0114 0837     		adds	r7, r7, #8
 343              		.cfi_def_cfa_offset 8
 344 0116 BD46     		mov	sp, r7
 345              		.cfi_def_cfa_register 13
 346              		@ sp needed
 347 0118 80BD     		pop	{r7, pc}
 348              	.L16:
 349 011a 00BF     		.align	2
 350              	.L15:
 351 011c 00000000 		.word	DMA_ZERO_VAL.4804
 352 0120 00760040 		.word	1073772032
 353 0124 10700040 		.word	1073770512
 354 0128 19700040 		.word	1073770521
 355 012c 00780040 		.word	1073772544
 356 0130 02780040 		.word	1073772546
 357 0134 03780040 		.word	1073772547
 358 0138 04780040 		.word	1073772548
 359 013c 00000000 		.word	CFG_TD_LIST0.4805
 360 0140 06780040 		.word	1073772550
 361 0144 04760040 		.word	1073772036
 362 0148 06760040 		.word	1073772038
 363 014c 29700040 		.word	1073770537
 364 0150 39700040 		.word	1073770553
 365 0154 69700040 		.word	1073770601
 366 0158 79700040 		.word	1073770617
 367 015c 14700040 		.word	1073770516
 368 0160 0C780040 		.word	1073772556
 369 0164 00000000 		.word	CFG_TD_ADDR0.4806
 370 0168 18700040 		.word	1073770520
 371 016c 28700040 		.word	1073770536
 372 0170 38700040 		.word	1073770552
 373 0174 68700040 		.word	1073770600
 374 0178 78700040 		.word	1073770616
 375 017c 10510140 		.word	1073828112
 376              		.cfi_endproc
 377              	.LFE4:
 378              		.size	cfg_dma_init, .-cfg_dma_init
 379              		.section	.text.ClockSetup,"ax",%progbits
 380              		.align	2
 381              		.thumb
 382              		.thumb_func
 383              		.type	ClockSetup, %function
 384              	ClockSetup:
 385              	.LFB5:
 518:.\Generated_Source\PSoC5/cyfitter_cfg.c **** /*******************************************************************************
 519:.\Generated_Source\PSoC5/cyfitter_cfg.c **** * Function Name: ClockSetup
 520:.\Generated_Source\PSoC5/cyfitter_cfg.c **** ********************************************************************************
 521:.\Generated_Source\PSoC5/cyfitter_cfg.c **** *
 522:.\Generated_Source\PSoC5/cyfitter_cfg.c **** * Summary:
 523:.\Generated_Source\PSoC5/cyfitter_cfg.c **** *  Performs the initialization of all of the clocks in the device based on the
 524:.\Generated_Source\PSoC5/cyfitter_cfg.c **** *  settings in the Clock tab of the DWR.  This includes enabling the requested
 525:.\Generated_Source\PSoC5/cyfitter_cfg.c **** *  clocks and setting the necessary dividers to produce the desired frequency. 
ARM GAS  C:\Users\ologa\AppData\Local\Temp\ccpCyAf8.s 			page 17


 526:.\Generated_Source\PSoC5/cyfitter_cfg.c **** *
 527:.\Generated_Source\PSoC5/cyfitter_cfg.c **** * Parameters:
 528:.\Generated_Source\PSoC5/cyfitter_cfg.c **** *  void
 529:.\Generated_Source\PSoC5/cyfitter_cfg.c **** *
 530:.\Generated_Source\PSoC5/cyfitter_cfg.c **** * Return:
 531:.\Generated_Source\PSoC5/cyfitter_cfg.c **** *  void
 532:.\Generated_Source\PSoC5/cyfitter_cfg.c **** *
 533:.\Generated_Source\PSoC5/cyfitter_cfg.c **** *******************************************************************************/
 534:.\Generated_Source\PSoC5/cyfitter_cfg.c **** static void ClockSetup(void);
 535:.\Generated_Source\PSoC5/cyfitter_cfg.c **** static void ClockSetup(void)
 536:.\Generated_Source\PSoC5/cyfitter_cfg.c **** {
 386              		.loc 1 536 0
 387              		.cfi_startproc
 388              		@ args = 0, pretend = 0, frame = 8
 389              		@ frame_needed = 1, uses_anonymous_args = 0
 390 0000 80B5     		push	{r7, lr}
 391              		.cfi_def_cfa_offset 8
 392              		.cfi_offset 7, -8
 393              		.cfi_offset 14, -4
 394 0002 82B0     		sub	sp, sp, #8
 395              		.cfi_def_cfa_offset 16
 396 0004 00AF     		add	r7, sp, #0
 397              		.cfi_def_cfa_register 7
 537:.\Generated_Source\PSoC5/cyfitter_cfg.c **** 	uint32 timeout;
 538:.\Generated_Source\PSoC5/cyfitter_cfg.c **** 	uint8 pllLock;
 539:.\Generated_Source\PSoC5/cyfitter_cfg.c **** 
 540:.\Generated_Source\PSoC5/cyfitter_cfg.c **** 
 541:.\Generated_Source\PSoC5/cyfitter_cfg.c **** 	/* Configure Digital Clocks based on settings from Clock DWR */
 542:.\Generated_Source\PSoC5/cyfitter_cfg.c **** 	CY_SET_XTND_REG16((void CYFAR *)(CYREG_CLKDIST_DCFG0_CFG0), 0x0007u);
 398              		.loc 1 542 0
 399 0006 494B     		ldr	r3, .L26
 400 0008 0722     		movs	r2, #7
 401 000a 1A80     		strh	r2, [r3]	@ movhi
 543:.\Generated_Source\PSoC5/cyfitter_cfg.c **** 	CY_SET_XTND_REG8((void CYFAR *)(CYREG_CLKDIST_DCFG0_CFG0 + 0x2u), 0x18u);
 402              		.loc 1 543 0
 403 000c 484B     		ldr	r3, .L26+4
 404 000e 1822     		movs	r2, #24
 405 0010 1A70     		strb	r2, [r3]
 544:.\Generated_Source\PSoC5/cyfitter_cfg.c **** 	CY_SET_XTND_REG16((void CYFAR *)(CYREG_CLKDIST_DCFG1_CFG0), 0x034Fu);
 406              		.loc 1 544 0
 407 0012 484B     		ldr	r3, .L26+8
 408 0014 40F24F32 		movw	r2, #847
 409 0018 1A80     		strh	r2, [r3]	@ movhi
 545:.\Generated_Source\PSoC5/cyfitter_cfg.c **** 	CY_SET_XTND_REG8((void CYFAR *)(CYREG_CLKDIST_DCFG1_CFG0 + 0x2u), 0x18u);
 410              		.loc 1 545 0
 411 001a 474B     		ldr	r3, .L26+12
 412 001c 1822     		movs	r2, #24
 413 001e 1A70     		strb	r2, [r3]
 546:.\Generated_Source\PSoC5/cyfitter_cfg.c **** 	CY_SET_XTND_REG16((void CYFAR *)(CYREG_CLKDIST_DCFG2_CFG0), 0x018Fu);
 414              		.loc 1 546 0
 415 0020 464B     		ldr	r3, .L26+16
 416 0022 40F28F12 		movw	r2, #399
 417 0026 1A80     		strh	r2, [r3]	@ movhi
 547:.\Generated_Source\PSoC5/cyfitter_cfg.c **** 	CY_SET_XTND_REG8((void CYFAR *)(CYREG_CLKDIST_DCFG2_CFG0 + 0x2u), 0x19u);
 418              		.loc 1 547 0
 419 0028 454B     		ldr	r3, .L26+20
 420 002a 1922     		movs	r2, #25
ARM GAS  C:\Users\ologa\AppData\Local\Temp\ccpCyAf8.s 			page 18


 421 002c 1A70     		strb	r2, [r3]
 548:.\Generated_Source\PSoC5/cyfitter_cfg.c **** 
 549:.\Generated_Source\PSoC5/cyfitter_cfg.c **** 	/* Configure ILO based on settings from Clock DWR */
 550:.\Generated_Source\PSoC5/cyfitter_cfg.c **** 	CY_SET_XTND_REG8((void CYFAR *)(CYREG_SLOWCLK_ILO_CR0), 0x02u);
 422              		.loc 1 550 0
 423 002e 454B     		ldr	r3, .L26+24
 424 0030 0222     		movs	r2, #2
 425 0032 1A70     		strb	r2, [r3]
 551:.\Generated_Source\PSoC5/cyfitter_cfg.c **** 	CY_SET_XTND_REG8((void CYFAR *)(CYREG_CLKDIST_CR), 0x08u);
 426              		.loc 1 551 0
 427 0034 4FF04023 		mov	r3, #1073758208
 428 0038 0822     		movs	r2, #8
 429 003a 1A70     		strb	r2, [r3]
 552:.\Generated_Source\PSoC5/cyfitter_cfg.c **** 
 553:.\Generated_Source\PSoC5/cyfitter_cfg.c **** 	/* Configure XTAL based on settings from Clock DWR */
 554:.\Generated_Source\PSoC5/cyfitter_cfg.c **** 	CY_SET_XTND_REG16((void CYFAR *)(CYREG_FASTCLK_XMHZ_CFG0), 0x3313u);
 430              		.loc 1 554 0
 431 003c 424B     		ldr	r3, .L26+28
 432 003e 43F21332 		movw	r2, #13075
 433 0042 1A80     		strh	r2, [r3]	@ movhi
 555:.\Generated_Source\PSoC5/cyfitter_cfg.c **** 	CY_SET_XTND_REG8((void CYFAR *)(CYREG_FASTCLK_XMHZ_CSR), 0x05u);
 434              		.loc 1 555 0
 435 0044 414B     		ldr	r3, .L26+32
 436 0046 0522     		movs	r2, #5
 437 0048 1A70     		strb	r2, [r3]
 556:.\Generated_Source\PSoC5/cyfitter_cfg.c **** 	/* Wait up to 130000us for the XTAL to lock */
 557:.\Generated_Source\PSoC5/cyfitter_cfg.c **** 	CY_GET_XTND_REG8((void CYFAR *)CYREG_FASTCLK_XMHZ_CSR);
 438              		.loc 1 557 0
 439 004a 404B     		ldr	r3, .L26+32
 440 004c 1B78     		ldrb	r3, [r3]
 558:.\Generated_Source\PSoC5/cyfitter_cfg.c **** 	for (timeout = 130000u / 10u; (timeout > 0u) && ((CY_GET_XTND_REG8((void CYFAR *)CYREG_FASTCLK_XMH
 441              		.loc 1 558 0
 442 004e 43F2C823 		movw	r3, #13000
 443 0052 7B60     		str	r3, [r7, #4]
 444 0054 06E0     		b	.L18
 445              	.L20:
 559:.\Generated_Source\PSoC5/cyfitter_cfg.c **** 	{ 
 560:.\Generated_Source\PSoC5/cyfitter_cfg.c **** 		
 561:.\Generated_Source\PSoC5/cyfitter_cfg.c **** 		CyDelayCycles(10u * 48u); /* Delay 10us based on 48MHz clock */
 446              		.loc 1 561 0 discriminator 4
 447 0056 4FF4F070 		mov	r0, #480
 448 005a FFF7FEFF 		bl	CyDelayCycles
 558:.\Generated_Source\PSoC5/cyfitter_cfg.c **** 	for (timeout = 130000u / 10u; (timeout > 0u) && ((CY_GET_XTND_REG8((void CYFAR *)CYREG_FASTCLK_XMH
 449              		.loc 1 558 0 discriminator 4
 450 005e 7B68     		ldr	r3, [r7, #4]
 451 0060 013B     		subs	r3, r3, #1
 452 0062 7B60     		str	r3, [r7, #4]
 453              	.L18:
 558:.\Generated_Source\PSoC5/cyfitter_cfg.c **** 	for (timeout = 130000u / 10u; (timeout > 0u) && ((CY_GET_XTND_REG8((void CYFAR *)CYREG_FASTCLK_XMH
 454              		.loc 1 558 0 is_stmt 0 discriminator 1
 455 0064 7B68     		ldr	r3, [r7, #4]
 456 0066 002B     		cmp	r3, #0
 457 0068 06D0     		beq	.L19
 558:.\Generated_Source\PSoC5/cyfitter_cfg.c **** 	for (timeout = 130000u / 10u; (timeout > 0u) && ((CY_GET_XTND_REG8((void CYFAR *)CYREG_FASTCLK_XMH
 458              		.loc 1 558 0 discriminator 3
 459 006a 384B     		ldr	r3, .L26+32
 460 006c 1B78     		ldrb	r3, [r3]
ARM GAS  C:\Users\ologa\AppData\Local\Temp\ccpCyAf8.s 			page 19


 461 006e DBB2     		uxtb	r3, r3
 462 0070 DBB2     		uxtb	r3, r3
 463 0072 5BB2     		sxtb	r3, r3
 464 0074 002B     		cmp	r3, #0
 465 0076 EEDB     		blt	.L20
 466              	.L19:
 562:.\Generated_Source\PSoC5/cyfitter_cfg.c **** 	}
 563:.\Generated_Source\PSoC5/cyfitter_cfg.c **** 	if (timeout == 0u)
 467              		.loc 1 563 0 is_stmt 1
 468 0078 7B68     		ldr	r3, [r7, #4]
 469 007a 002B     		cmp	r3, #0
 470 007c 02D1     		bne	.L21
 564:.\Generated_Source\PSoC5/cyfitter_cfg.c **** 	{
 565:.\Generated_Source\PSoC5/cyfitter_cfg.c **** 		CyClockStartupError(CYCLOCKSTART_XTAL_ERROR);
 471              		.loc 1 565 0
 472 007e 0120     		movs	r0, #1
 473 0080 FFF7FEFF 		bl	CyClockStartupError
 474              	.L21:
 566:.\Generated_Source\PSoC5/cyfitter_cfg.c **** 	}
 567:.\Generated_Source\PSoC5/cyfitter_cfg.c **** 	CY_SET_XTND_REG8((void CYFAR *)(CYREG_CLKDIST_CR), 0x48u);
 475              		.loc 1 567 0
 476 0084 4FF04023 		mov	r3, #1073758208
 477 0088 4822     		movs	r2, #72
 478 008a 1A70     		strb	r2, [r3]
 568:.\Generated_Source\PSoC5/cyfitter_cfg.c **** 
 569:.\Generated_Source\PSoC5/cyfitter_cfg.c **** 	/* Configure IMO based on settings from Clock DWR */
 570:.\Generated_Source\PSoC5/cyfitter_cfg.c **** 	CY_SET_XTND_REG8((void CYFAR *)(CYREG_FASTCLK_IMO_CR), 0x20u);
 479              		.loc 1 570 0
 480 008c 304B     		ldr	r3, .L26+36
 481 008e 2022     		movs	r2, #32
 482 0090 1A70     		strb	r2, [r3]
 571:.\Generated_Source\PSoC5/cyfitter_cfg.c **** 
 572:.\Generated_Source\PSoC5/cyfitter_cfg.c **** 	/* Configure PLL based on settings from Clock DWR */
 573:.\Generated_Source\PSoC5/cyfitter_cfg.c **** 	CY_SET_XTND_REG16((void CYFAR *)(CYREG_FASTCLK_PLL_P), 0x0D26u);
 483              		.loc 1 573 0
 484 0092 304B     		ldr	r3, .L26+40
 485 0094 40F62652 		movw	r2, #3366
 486 0098 1A80     		strh	r2, [r3]	@ movhi
 574:.\Generated_Source\PSoC5/cyfitter_cfg.c **** 	CY_SET_XTND_REG16((void CYFAR *)(CYREG_FASTCLK_PLL_CFG0), 0x1251u);
 487              		.loc 1 574 0
 488 009a 2F4B     		ldr	r3, .L26+44
 489 009c 41F25122 		movw	r2, #4689
 490 00a0 1A80     		strh	r2, [r3]	@ movhi
 575:.\Generated_Source\PSoC5/cyfitter_cfg.c **** 	/* Wait up to 250us for the PLL to lock */
 576:.\Generated_Source\PSoC5/cyfitter_cfg.c **** 	pllLock = 0u;
 491              		.loc 1 576 0
 492 00a2 0023     		movs	r3, #0
 493 00a4 FB70     		strb	r3, [r7, #3]
 577:.\Generated_Source\PSoC5/cyfitter_cfg.c **** 	for (timeout = 250u / 10u; (timeout > 0u) && (pllLock != 0x03u); timeout--)
 494              		.loc 1 577 0
 495 00a6 1923     		movs	r3, #25
 496 00a8 7B60     		str	r3, [r7, #4]
 497 00aa 14E0     		b	.L22
 498              	.L24:
 578:.\Generated_Source\PSoC5/cyfitter_cfg.c **** 	{ 
 579:.\Generated_Source\PSoC5/cyfitter_cfg.c **** 		pllLock = 0x03u & ((uint8)((uint8)pllLock << 1) | ((CY_GET_XTND_REG8((void CYFAR *)CYREG_FASTCLK_
 499              		.loc 1 579 0 discriminator 4
ARM GAS  C:\Users\ologa\AppData\Local\Temp\ccpCyAf8.s 			page 20


 500 00ac FB78     		ldrb	r3, [r7, #3]
 501 00ae 5B00     		lsls	r3, r3, #1
 502 00b0 DAB2     		uxtb	r2, r3
 503 00b2 2A4B     		ldr	r3, .L26+48
 504 00b4 1B78     		ldrb	r3, [r3]
 505 00b6 DBB2     		uxtb	r3, r3
 506 00b8 03F00103 		and	r3, r3, #1
 507 00bc DBB2     		uxtb	r3, r3
 508 00be 1343     		orrs	r3, r3, r2
 509 00c0 DBB2     		uxtb	r3, r3
 510 00c2 03F00303 		and	r3, r3, #3
 511 00c6 FB70     		strb	r3, [r7, #3]
 580:.\Generated_Source\PSoC5/cyfitter_cfg.c **** 		CyDelayCycles(10u * 48u); /* Delay 10us based on 48MHz clock */
 512              		.loc 1 580 0 discriminator 4
 513 00c8 4FF4F070 		mov	r0, #480
 514 00cc FFF7FEFF 		bl	CyDelayCycles
 577:.\Generated_Source\PSoC5/cyfitter_cfg.c **** 	for (timeout = 250u / 10u; (timeout > 0u) && (pllLock != 0x03u); timeout--)
 515              		.loc 1 577 0 discriminator 4
 516 00d0 7B68     		ldr	r3, [r7, #4]
 517 00d2 013B     		subs	r3, r3, #1
 518 00d4 7B60     		str	r3, [r7, #4]
 519              	.L22:
 577:.\Generated_Source\PSoC5/cyfitter_cfg.c **** 	for (timeout = 250u / 10u; (timeout > 0u) && (pllLock != 0x03u); timeout--)
 520              		.loc 1 577 0 is_stmt 0 discriminator 1
 521 00d6 7B68     		ldr	r3, [r7, #4]
 522 00d8 002B     		cmp	r3, #0
 523 00da 02D0     		beq	.L23
 577:.\Generated_Source\PSoC5/cyfitter_cfg.c **** 	for (timeout = 250u / 10u; (timeout > 0u) && (pllLock != 0x03u); timeout--)
 524              		.loc 1 577 0 discriminator 3
 525 00dc FB78     		ldrb	r3, [r7, #3]	@ zero_extendqisi2
 526 00de 032B     		cmp	r3, #3
 527 00e0 E4D1     		bne	.L24
 528              	.L23:
 581:.\Generated_Source\PSoC5/cyfitter_cfg.c **** 	}
 582:.\Generated_Source\PSoC5/cyfitter_cfg.c **** 	/* If we ran out of time the PLL didn't lock so go to the error function */
 583:.\Generated_Source\PSoC5/cyfitter_cfg.c **** 	if (timeout == 0u)
 529              		.loc 1 583 0 is_stmt 1
 530 00e2 7B68     		ldr	r3, [r7, #4]
 531 00e4 002B     		cmp	r3, #0
 532 00e6 02D1     		bne	.L25
 584:.\Generated_Source\PSoC5/cyfitter_cfg.c **** 	{
 585:.\Generated_Source\PSoC5/cyfitter_cfg.c **** 		CyClockStartupError(CYCLOCKSTART_PLL_ERROR);
 533              		.loc 1 585 0
 534 00e8 0320     		movs	r0, #3
 535 00ea FFF7FEFF 		bl	CyClockStartupError
 536              	.L25:
 586:.\Generated_Source\PSoC5/cyfitter_cfg.c **** 	}
 587:.\Generated_Source\PSoC5/cyfitter_cfg.c **** 
 588:.\Generated_Source\PSoC5/cyfitter_cfg.c **** 	/* Configure Bus/Master Clock based on settings from Clock DWR */
 589:.\Generated_Source\PSoC5/cyfitter_cfg.c **** 	CY_SET_XTND_REG16((void CYFAR *)(CYREG_CLKDIST_MSTR0), 0x0100u);
 537              		.loc 1 589 0
 538 00ee 1C4B     		ldr	r3, .L26+52
 539 00f0 4FF48072 		mov	r2, #256
 540 00f4 1A80     		strh	r2, [r3]	@ movhi
 590:.\Generated_Source\PSoC5/cyfitter_cfg.c **** 	CY_SET_XTND_REG8((void CYFAR *)(CYREG_CLKDIST_MSTR0), 0x07u);
 541              		.loc 1 590 0
 542 00f6 1A4B     		ldr	r3, .L26+52
ARM GAS  C:\Users\ologa\AppData\Local\Temp\ccpCyAf8.s 			page 21


 543 00f8 0722     		movs	r2, #7
 544 00fa 1A70     		strb	r2, [r3]
 591:.\Generated_Source\PSoC5/cyfitter_cfg.c **** 	CY_SET_XTND_REG8((void CYFAR *)(CYREG_CLKDIST_BCFG0), 0x00u);
 545              		.loc 1 591 0
 546 00fc 194B     		ldr	r3, .L26+56
 547 00fe 0022     		movs	r2, #0
 548 0100 1A70     		strb	r2, [r3]
 592:.\Generated_Source\PSoC5/cyfitter_cfg.c **** 	CY_SET_XTND_REG8((void CYFAR *)(CYREG_CLKDIST_BCFG2), 0x48u);
 549              		.loc 1 592 0
 550 0102 194B     		ldr	r3, .L26+60
 551 0104 4822     		movs	r2, #72
 552 0106 1A70     		strb	r2, [r3]
 593:.\Generated_Source\PSoC5/cyfitter_cfg.c **** 	CY_SET_XTND_REG8((void CYFAR *)(CYREG_CLKDIST_MSTR0), 0x00u);
 553              		.loc 1 593 0
 554 0108 154B     		ldr	r3, .L26+52
 555 010a 0022     		movs	r2, #0
 556 010c 1A70     		strb	r2, [r3]
 594:.\Generated_Source\PSoC5/cyfitter_cfg.c **** 	CY_SET_XTND_REG8((void CYFAR *)(CYREG_CLKDIST_LD), 0x02u);
 557              		.loc 1 594 0
 558 010e 174B     		ldr	r3, .L26+64
 559 0110 0222     		movs	r2, #2
 560 0112 1A70     		strb	r2, [r3]
 595:.\Generated_Source\PSoC5/cyfitter_cfg.c **** 
 596:.\Generated_Source\PSoC5/cyfitter_cfg.c **** 	CY_SET_XTND_REG8((void CYFAR *)(CYREG_PM_ACT_CFG2), ((CY_GET_XTND_REG8((void CYFAR *)CYREG_PM_ACT_
 561              		.loc 1 596 0
 562 0114 164A     		ldr	r2, .L26+68
 563 0116 164B     		ldr	r3, .L26+68
 564 0118 1B78     		ldrb	r3, [r3]
 565 011a DBB2     		uxtb	r3, r3
 566 011c 43F00703 		orr	r3, r3, #7
 567 0120 DBB2     		uxtb	r3, r3
 568 0122 1370     		strb	r3, [r2]
 597:.\Generated_Source\PSoC5/cyfitter_cfg.c **** }
 569              		.loc 1 597 0
 570 0124 0837     		adds	r7, r7, #8
 571              		.cfi_def_cfa_offset 8
 572 0126 BD46     		mov	sp, r7
 573              		.cfi_def_cfa_register 13
 574              		@ sp needed
 575 0128 80BD     		pop	{r7, pc}
 576              	.L27:
 577 012a 00BF     		.align	2
 578              	.L26:
 579 012c 80400040 		.word	1073758336
 580 0130 82400040 		.word	1073758338
 581 0134 84400040 		.word	1073758340
 582 0138 86400040 		.word	1073758342
 583 013c 88400040 		.word	1073758344
 584 0140 8A400040 		.word	1073758346
 585 0144 00430040 		.word	1073758976
 586 0148 12420040 		.word	1073758738
 587 014c 10420040 		.word	1073758736
 588 0150 00420040 		.word	1073758720
 589 0154 22420040 		.word	1073758754
 590 0158 20420040 		.word	1073758752
 591 015c 25420040 		.word	1073758757
 592 0160 04400040 		.word	1073758212
ARM GAS  C:\Users\ologa\AppData\Local\Temp\ccpCyAf8.s 			page 22


 593 0164 06400040 		.word	1073758214
 594 0168 08400040 		.word	1073758216
 595 016c 01400040 		.word	1073758209
 596 0170 A2430040 		.word	1073759138
 597              		.cfi_endproc
 598              	.LFE5:
 599              		.size	ClockSetup, .-ClockSetup
 600              		.section	.text.AnalogSetDefault,"ax",%progbits
 601              		.align	2
 602              		.thumb
 603              		.thumb_func
 604              		.type	AnalogSetDefault, %function
 605              	AnalogSetDefault:
 606              	.LFB6:
 598:.\Generated_Source\PSoC5/cyfitter_cfg.c **** 
 599:.\Generated_Source\PSoC5/cyfitter_cfg.c **** 
 600:.\Generated_Source\PSoC5/cyfitter_cfg.c **** /* Analog API Functions */
 601:.\Generated_Source\PSoC5/cyfitter_cfg.c **** 
 602:.\Generated_Source\PSoC5/cyfitter_cfg.c **** 
 603:.\Generated_Source\PSoC5/cyfitter_cfg.c **** /*******************************************************************************
 604:.\Generated_Source\PSoC5/cyfitter_cfg.c **** * Function Name: AnalogSetDefault
 605:.\Generated_Source\PSoC5/cyfitter_cfg.c **** ********************************************************************************
 606:.\Generated_Source\PSoC5/cyfitter_cfg.c **** *
 607:.\Generated_Source\PSoC5/cyfitter_cfg.c **** * Summary:
 608:.\Generated_Source\PSoC5/cyfitter_cfg.c **** *  Sets up the analog portions of the chip to default values based on chip
 609:.\Generated_Source\PSoC5/cyfitter_cfg.c **** *  configuration options from the project.
 610:.\Generated_Source\PSoC5/cyfitter_cfg.c **** *
 611:.\Generated_Source\PSoC5/cyfitter_cfg.c **** * Parameters:
 612:.\Generated_Source\PSoC5/cyfitter_cfg.c **** *  void
 613:.\Generated_Source\PSoC5/cyfitter_cfg.c **** *
 614:.\Generated_Source\PSoC5/cyfitter_cfg.c **** * Return:
 615:.\Generated_Source\PSoC5/cyfitter_cfg.c **** *  void
 616:.\Generated_Source\PSoC5/cyfitter_cfg.c **** *
 617:.\Generated_Source\PSoC5/cyfitter_cfg.c **** *******************************************************************************/
 618:.\Generated_Source\PSoC5/cyfitter_cfg.c **** static void AnalogSetDefault(void);
 619:.\Generated_Source\PSoC5/cyfitter_cfg.c **** static void AnalogSetDefault(void)
 620:.\Generated_Source\PSoC5/cyfitter_cfg.c **** {
 607              		.loc 1 620 0
 608              		.cfi_startproc
 609              		@ args = 0, pretend = 0, frame = 8
 610              		@ frame_needed = 1, uses_anonymous_args = 0
 611              		@ link register save eliminated.
 612 0000 80B4     		push	{r7}
 613              		.cfi_def_cfa_offset 4
 614              		.cfi_offset 7, -4
 615 0002 83B0     		sub	sp, sp, #12
 616              		.cfi_def_cfa_offset 16
 617 0004 00AF     		add	r7, sp, #0
 618              		.cfi_def_cfa_register 7
 621:.\Generated_Source\PSoC5/cyfitter_cfg.c **** 	uint8 bg_xover_inl_trim = CY_GET_XTND_REG8((void CYFAR *)(CYREG_FLSHID_MFG_CFG_BG_XOVER_INL_TRIM +
 619              		.loc 1 621 0
 620 0006 0B4B     		ldr	r3, .L29
 621 0008 1B78     		ldrb	r3, [r3]
 622 000a FB71     		strb	r3, [r7, #7]
 622:.\Generated_Source\PSoC5/cyfitter_cfg.c **** 	CY_SET_XTND_REG8((void CYFAR *)(CYREG_BG_DFT0), (bg_xover_inl_trim & 0x07u));
 623              		.loc 1 622 0
 624 000c 0A4A     		ldr	r2, .L29+4
ARM GAS  C:\Users\ologa\AppData\Local\Temp\ccpCyAf8.s 			page 23


 625 000e FB79     		ldrb	r3, [r7, #7]
 626 0010 03F00703 		and	r3, r3, #7
 627 0014 DBB2     		uxtb	r3, r3
 628 0016 1370     		strb	r3, [r2]
 623:.\Generated_Source\PSoC5/cyfitter_cfg.c **** 	CY_SET_XTND_REG8((void CYFAR *)(CYREG_BG_DFT1), ((bg_xover_inl_trim >> 4) & 0x0Fu));
 629              		.loc 1 623 0
 630 0018 084A     		ldr	r2, .L29+8
 631 001a FB79     		ldrb	r3, [r7, #7]	@ zero_extendqisi2
 632 001c 1B09     		lsrs	r3, r3, #4
 633 001e DBB2     		uxtb	r3, r3
 634 0020 1370     		strb	r3, [r2]
 624:.\Generated_Source\PSoC5/cyfitter_cfg.c **** 	CY_SET_XTND_REG8((void CYFAR *)CYREG_PUMP_CR0, 0x44u);
 635              		.loc 1 624 0
 636 0022 074B     		ldr	r3, .L29+12
 637 0024 4422     		movs	r2, #68
 638 0026 1A70     		strb	r2, [r3]
 625:.\Generated_Source\PSoC5/cyfitter_cfg.c **** }
 639              		.loc 1 625 0
 640 0028 0C37     		adds	r7, r7, #12
 641              		.cfi_def_cfa_offset 4
 642 002a BD46     		mov	sp, r7
 643              		.cfi_def_cfa_register 13
 644              		@ sp needed
 645 002c 5DF8047B 		ldr	r7, [sp], #4
 646              		.cfi_restore 7
 647              		.cfi_def_cfa_offset 0
 648 0030 7047     		bx	lr
 649              	.L30:
 650 0032 00BF     		.align	2
 651              	.L29:
 652 0034 CF010049 		.word	1224737231
 653 0038 6E580040 		.word	1073764462
 654 003c 6F580040 		.word	1073764463
 655 0040 76580040 		.word	1073764470
 656              		.cfi_endproc
 657              	.LFE6:
 658              		.size	AnalogSetDefault, .-AnalogSetDefault
 659              		.section	.text.SetAnalogRoutingPumps,"ax",%progbits
 660              		.align	2
 661              		.global	SetAnalogRoutingPumps
 662              		.thumb
 663              		.thumb_func
 664              		.type	SetAnalogRoutingPumps, %function
 665              	SetAnalogRoutingPumps:
 666              	.LFB7:
 626:.\Generated_Source\PSoC5/cyfitter_cfg.c **** 
 627:.\Generated_Source\PSoC5/cyfitter_cfg.c **** 
 628:.\Generated_Source\PSoC5/cyfitter_cfg.c **** /*******************************************************************************
 629:.\Generated_Source\PSoC5/cyfitter_cfg.c **** * Function Name: SetAnalogRoutingPumps
 630:.\Generated_Source\PSoC5/cyfitter_cfg.c **** ********************************************************************************
 631:.\Generated_Source\PSoC5/cyfitter_cfg.c **** *
 632:.\Generated_Source\PSoC5/cyfitter_cfg.c **** * Summary:
 633:.\Generated_Source\PSoC5/cyfitter_cfg.c **** * Enables or disables the analog pumps feeding analog routing switches.
 634:.\Generated_Source\PSoC5/cyfitter_cfg.c **** * Intended to be called at startup, based on the Vdda system configuration;
 635:.\Generated_Source\PSoC5/cyfitter_cfg.c **** * may be called during operation when the user informs us that the Vdda voltage
 636:.\Generated_Source\PSoC5/cyfitter_cfg.c **** * crossed the pump threshold.
 637:.\Generated_Source\PSoC5/cyfitter_cfg.c **** *
ARM GAS  C:\Users\ologa\AppData\Local\Temp\ccpCyAf8.s 			page 24


 638:.\Generated_Source\PSoC5/cyfitter_cfg.c **** * Parameters:
 639:.\Generated_Source\PSoC5/cyfitter_cfg.c **** *  enabled - 1 to enable the pumps, 0 to disable the pumps
 640:.\Generated_Source\PSoC5/cyfitter_cfg.c **** *
 641:.\Generated_Source\PSoC5/cyfitter_cfg.c **** * Return:
 642:.\Generated_Source\PSoC5/cyfitter_cfg.c **** *  void
 643:.\Generated_Source\PSoC5/cyfitter_cfg.c **** *
 644:.\Generated_Source\PSoC5/cyfitter_cfg.c **** *******************************************************************************/
 645:.\Generated_Source\PSoC5/cyfitter_cfg.c **** void SetAnalogRoutingPumps(uint8 enabled)
 646:.\Generated_Source\PSoC5/cyfitter_cfg.c **** {
 667              		.loc 1 646 0
 668              		.cfi_startproc
 669              		@ args = 0, pretend = 0, frame = 16
 670              		@ frame_needed = 1, uses_anonymous_args = 0
 671              		@ link register save eliminated.
 672 0000 80B4     		push	{r7}
 673              		.cfi_def_cfa_offset 4
 674              		.cfi_offset 7, -4
 675 0002 85B0     		sub	sp, sp, #20
 676              		.cfi_def_cfa_offset 24
 677 0004 00AF     		add	r7, sp, #0
 678              		.cfi_def_cfa_register 7
 679 0006 0346     		mov	r3, r0
 680 0008 FB71     		strb	r3, [r7, #7]
 647:.\Generated_Source\PSoC5/cyfitter_cfg.c **** 	uint8 regValue = CY_GET_XTND_REG8((void CYFAR *)CYREG_PUMP_CR0);
 681              		.loc 1 647 0
 682 000a 064B     		ldr	r3, .L34
 683 000c 1B78     		ldrb	r3, [r3]
 684 000e FB73     		strb	r3, [r7, #15]
 648:.\Generated_Source\PSoC5/cyfitter_cfg.c **** 	if (enabled != 0u)
 685              		.loc 1 648 0
 686 0010 FB79     		ldrb	r3, [r7, #7]	@ zero_extendqisi2
 687 0012 002B     		cmp	r3, #0
 649:.\Generated_Source\PSoC5/cyfitter_cfg.c **** 	{
 650:.\Generated_Source\PSoC5/cyfitter_cfg.c **** 		regValue |= 0x00u;
 651:.\Generated_Source\PSoC5/cyfitter_cfg.c **** 	}
 652:.\Generated_Source\PSoC5/cyfitter_cfg.c **** 	else
 653:.\Generated_Source\PSoC5/cyfitter_cfg.c **** 	{
 654:.\Generated_Source\PSoC5/cyfitter_cfg.c **** 		regValue &= (uint8)~0x00u;
 655:.\Generated_Source\PSoC5/cyfitter_cfg.c **** 	}
 656:.\Generated_Source\PSoC5/cyfitter_cfg.c **** 	CY_SET_XTND_REG8((void CYFAR *)CYREG_PUMP_CR0, regValue);
 688              		.loc 1 656 0
 689 0014 034A     		ldr	r2, .L34
 690 0016 FB7B     		ldrb	r3, [r7, #15]
 691 0018 1370     		strb	r3, [r2]
 657:.\Generated_Source\PSoC5/cyfitter_cfg.c **** }
 692              		.loc 1 657 0
 693 001a 1437     		adds	r7, r7, #20
 694              		.cfi_def_cfa_offset 4
 695 001c BD46     		mov	sp, r7
 696              		.cfi_def_cfa_register 13
 697              		@ sp needed
 698 001e 5DF8047B 		ldr	r7, [sp], #4
 699              		.cfi_restore 7
 700              		.cfi_def_cfa_offset 0
 701 0022 7047     		bx	lr
 702              	.L35:
 703              		.align	2
ARM GAS  C:\Users\ologa\AppData\Local\Temp\ccpCyAf8.s 			page 25


 704              	.L34:
 705 0024 76580040 		.word	1073764470
 706              		.cfi_endproc
 707              	.LFE7:
 708              		.size	SetAnalogRoutingPumps, .-SetAnalogRoutingPumps
 709              		.section	.text.cyfitter_cfg,"ax",%progbits
 710              		.align	2
 711              		.global	cyfitter_cfg
 712              		.thumb
 713              		.thumb_func
 714              		.type	cyfitter_cfg, %function
 715              	cyfitter_cfg:
 716              	.LFB8:
 658:.\Generated_Source\PSoC5/cyfitter_cfg.c **** 
 659:.\Generated_Source\PSoC5/cyfitter_cfg.c **** #define CY_AMUX_UNUSED CYREG_BOOST_SR
 660:.\Generated_Source\PSoC5/cyfitter_cfg.c **** 
 661:.\Generated_Source\PSoC5/cyfitter_cfg.c **** 
 662:.\Generated_Source\PSoC5/cyfitter_cfg.c **** /*******************************************************************************
 663:.\Generated_Source\PSoC5/cyfitter_cfg.c **** * Function Name: cyfitter_cfg
 664:.\Generated_Source\PSoC5/cyfitter_cfg.c **** ********************************************************************************
 665:.\Generated_Source\PSoC5/cyfitter_cfg.c **** * Summary:
 666:.\Generated_Source\PSoC5/cyfitter_cfg.c **** *  This function is called by the start-up code for the selected device. It
 667:.\Generated_Source\PSoC5/cyfitter_cfg.c **** *  performs all of the necessary device configuration based on the design
 668:.\Generated_Source\PSoC5/cyfitter_cfg.c **** *  settings.  This includes settings from the Design Wide Resources (DWR) such
 669:.\Generated_Source\PSoC5/cyfitter_cfg.c **** *  as Clocks and Pins as well as any component configuration that is necessary.
 670:.\Generated_Source\PSoC5/cyfitter_cfg.c **** *
 671:.\Generated_Source\PSoC5/cyfitter_cfg.c **** * Parameters:  
 672:.\Generated_Source\PSoC5/cyfitter_cfg.c **** *   void
 673:.\Generated_Source\PSoC5/cyfitter_cfg.c **** *
 674:.\Generated_Source\PSoC5/cyfitter_cfg.c **** * Return:
 675:.\Generated_Source\PSoC5/cyfitter_cfg.c **** *   void
 676:.\Generated_Source\PSoC5/cyfitter_cfg.c **** *
 677:.\Generated_Source\PSoC5/cyfitter_cfg.c **** *******************************************************************************/
 678:.\Generated_Source\PSoC5/cyfitter_cfg.c **** 
 679:.\Generated_Source\PSoC5/cyfitter_cfg.c **** void cyfitter_cfg(void)
 680:.\Generated_Source\PSoC5/cyfitter_cfg.c **** {
 717              		.loc 1 680 0
 718              		.cfi_startproc
 719              		@ args = 0, pretend = 0, frame = 0
 720              		@ frame_needed = 1, uses_anonymous_args = 0
 721 0000 80B5     		push	{r7, lr}
 722              		.cfi_def_cfa_offset 8
 723              		.cfi_offset 7, -8
 724              		.cfi_offset 14, -4
 725 0002 00AF     		add	r7, sp, #0
 726              		.cfi_def_cfa_register 7
 681:.\Generated_Source\PSoC5/cyfitter_cfg.c **** #ifdef CYGlobalIntDisable
 682:.\Generated_Source\PSoC5/cyfitter_cfg.c **** 	/* Disable interrupts by default. Let user enable if/when they want. */
 683:.\Generated_Source\PSoC5/cyfitter_cfg.c **** 	CYGlobalIntDisable
 727              		.loc 1 683 0
 728              	@ 683 ".\Generated_Source\PSoC5\cyfitter_cfg.c" 1
 729 0004 72B6     		CPSID   i
 730              	@ 0 "" 2
 684:.\Generated_Source\PSoC5/cyfitter_cfg.c **** #endif
 685:.\Generated_Source\PSoC5/cyfitter_cfg.c **** 
 686:.\Generated_Source\PSoC5/cyfitter_cfg.c **** 	/* Enable/Disable Debug functionality based on settings from System DWR */
 687:.\Generated_Source\PSoC5/cyfitter_cfg.c **** 	CY_SET_XTND_REG8((void CYFAR *)CYREG_MLOGIC_DEBUG, (CY_GET_XTND_REG8((void CYFAR *)CYREG_MLOGIC_DE
ARM GAS  C:\Users\ologa\AppData\Local\Temp\ccpCyAf8.s 			page 26


 731              		.loc 1 687 0
 732              		.thumb
 733 0006 264A     		ldr	r2, .L37
 734 0008 254B     		ldr	r3, .L37
 735 000a 1B78     		ldrb	r3, [r3]
 736 000c DBB2     		uxtb	r3, r3
 737 000e 43F02403 		orr	r3, r3, #36
 738 0012 DBB2     		uxtb	r3, r3
 739 0014 1370     		strb	r3, [r2]
 688:.\Generated_Source\PSoC5/cyfitter_cfg.c **** 
 689:.\Generated_Source\PSoC5/cyfitter_cfg.c **** 	{
 690:.\Generated_Source\PSoC5/cyfitter_cfg.c **** 		cfg_dma_init();
 740              		.loc 1 690 0
 741 0016 FFF7FEFF 		bl	cfg_dma_init
 691:.\Generated_Source\PSoC5/cyfitter_cfg.c **** 
 692:.\Generated_Source\PSoC5/cyfitter_cfg.c **** 		/* Perform normal device configuration. Order is not critical for these items. */
 693:.\Generated_Source\PSoC5/cyfitter_cfg.c **** 		CYMEMZERO((void CYFAR *)(CYREG_PHUB_CFGMEM0_CFG0), 4u);
 742              		.loc 1 693 0
 743 001a 2248     		ldr	r0, .L37+4
 744 001c 0421     		movs	r1, #4
 745 001e FFF7FEFF 		bl	CYMEMZERO
 694:.\Generated_Source\PSoC5/cyfitter_cfg.c **** 
 695:.\Generated_Source\PSoC5/cyfitter_cfg.c **** 		/* Enable digital routing */
 696:.\Generated_Source\PSoC5/cyfitter_cfg.c **** 		CY_SET_XTND_REG8((void CYFAR *)CYREG_BCTL0_BANK_CTL, CY_GET_XTND_REG8((void CYFAR *)CYREG_BCTL0_B
 746              		.loc 1 696 0
 747 0022 214A     		ldr	r2, .L37+8
 748 0024 204B     		ldr	r3, .L37+8
 749 0026 1B78     		ldrb	r3, [r3]
 750 0028 DBB2     		uxtb	r3, r3
 751 002a 43F00203 		orr	r3, r3, #2
 752 002e DBB2     		uxtb	r3, r3
 753 0030 1370     		strb	r3, [r2]
 697:.\Generated_Source\PSoC5/cyfitter_cfg.c **** 		CY_SET_XTND_REG8((void CYFAR *)CYREG_BCTL1_BANK_CTL, CY_GET_XTND_REG8((void CYFAR *)CYREG_BCTL1_B
 754              		.loc 1 697 0
 755 0032 1E4A     		ldr	r2, .L37+12
 756 0034 1D4B     		ldr	r3, .L37+12
 757 0036 1B78     		ldrb	r3, [r3]
 758 0038 DBB2     		uxtb	r3, r3
 759 003a 43F00203 		orr	r3, r3, #2
 760 003e DBB2     		uxtb	r3, r3
 761 0040 1370     		strb	r3, [r2]
 698:.\Generated_Source\PSoC5/cyfitter_cfg.c **** 
 699:.\Generated_Source\PSoC5/cyfitter_cfg.c **** 		/* Enable UDB array */
 700:.\Generated_Source\PSoC5/cyfitter_cfg.c **** 		CY_SET_XTND_REG8((void CYFAR *)CYREG_PM_ACT_CFG0, CY_GET_XTND_REG8((void CYFAR *)CYREG_PM_ACT_CFG
 762              		.loc 1 700 0
 763 0042 1B4A     		ldr	r2, .L37+16
 764 0044 1A4B     		ldr	r3, .L37+16
 765 0046 1B78     		ldrb	r3, [r3]
 766 0048 DBB2     		uxtb	r3, r3
 767 004a 43F04003 		orr	r3, r3, #64
 768 004e DBB2     		uxtb	r3, r3
 769 0050 1370     		strb	r3, [r2]
 701:.\Generated_Source\PSoC5/cyfitter_cfg.c **** 		CY_SET_XTND_REG8((void CYFAR *)CYREG_PM_AVAIL_CR2, CY_GET_XTND_REG8((void CYFAR *)CYREG_PM_AVAIL_
 770              		.loc 1 701 0
 771 0052 184A     		ldr	r2, .L37+20
 772 0054 174B     		ldr	r3, .L37+20
 773 0056 1B78     		ldrb	r3, [r3]
ARM GAS  C:\Users\ologa\AppData\Local\Temp\ccpCyAf8.s 			page 27


 774 0058 DBB2     		uxtb	r3, r3
 775 005a 43F01003 		orr	r3, r3, #16
 776 005e DBB2     		uxtb	r3, r3
 777 0060 1370     		strb	r3, [r2]
 702:.\Generated_Source\PSoC5/cyfitter_cfg.c **** 	}
 703:.\Generated_Source\PSoC5/cyfitter_cfg.c **** 
 704:.\Generated_Source\PSoC5/cyfitter_cfg.c **** 
 705:.\Generated_Source\PSoC5/cyfitter_cfg.c **** 	/* Perform second pass device configuration. These items must be configured in specific order afte
 706:.\Generated_Source\PSoC5/cyfitter_cfg.c **** 	CYCONFIGCPY((void CYFAR *)(CYREG_PRT1_DR), (const void CYFAR *)(BS_IOPINS0_1_VAL), 10u);
 778              		.loc 1 706 0
 779 0062 1548     		ldr	r0, .L37+24
 780 0064 1549     		ldr	r1, .L37+28
 781 0066 0A22     		movs	r2, #10
 782 0068 FFF7FEFF 		bl	CYCONFIGCPY
 707:.\Generated_Source\PSoC5/cyfitter_cfg.c **** 	CYCONFIGCPY((void CYFAR *)(CYREG_PRT2_DM0), (const void CYFAR *)(BS_IOPINS0_2_VAL), 8u);
 783              		.loc 1 707 0
 784 006c 1448     		ldr	r0, .L37+32
 785 006e 1549     		ldr	r1, .L37+36
 786 0070 0822     		movs	r2, #8
 787 0072 FFF7FEFF 		bl	CYCONFIGCPY
 708:.\Generated_Source\PSoC5/cyfitter_cfg.c **** 	/* Switch Boost to the precision bandgap reference from its internal reference */
 709:.\Generated_Source\PSoC5/cyfitter_cfg.c **** 	CY_SET_REG8((void CYXDATA *)CYREG_BOOST_CR2, (CY_GET_REG8((void CYXDATA *)CYREG_BOOST_CR2) | 0x08u
 788              		.loc 1 709 0
 789 0076 144A     		ldr	r2, .L37+40
 790 0078 134B     		ldr	r3, .L37+40
 791 007a 1B78     		ldrb	r3, [r3]
 792 007c DBB2     		uxtb	r3, r3
 793 007e 43F00803 		orr	r3, r3, #8
 794 0082 DBB2     		uxtb	r3, r3
 795 0084 1370     		strb	r3, [r2]
 710:.\Generated_Source\PSoC5/cyfitter_cfg.c **** 
 711:.\Generated_Source\PSoC5/cyfitter_cfg.c **** 	/* Set Flash Cycles based on max possible frequency in case a glitch occurs during ClockSetup(). *
 712:.\Generated_Source\PSoC5/cyfitter_cfg.c **** 	CY_SET_XTND_REG8((void CYFAR *)(CYREG_CACHE_CC_CTL), (((CYDEV_INSTRUCT_CACHE_ENABLED) != 0) ? 0x01
 796              		.loc 1 712 0
 797 0086 114B     		ldr	r3, .L37+44
 798 0088 0122     		movs	r2, #1
 799 008a 1A70     		strb	r2, [r3]
 713:.\Generated_Source\PSoC5/cyfitter_cfg.c **** 	/* Setup clocks based on selections from Clock DWR */
 714:.\Generated_Source\PSoC5/cyfitter_cfg.c **** 	ClockSetup();
 800              		.loc 1 714 0
 801 008c FFF7FEFF 		bl	ClockSetup
 715:.\Generated_Source\PSoC5/cyfitter_cfg.c **** 
 716:.\Generated_Source\PSoC5/cyfitter_cfg.c **** 	/* Perform basic analog initialization to defaults */
 717:.\Generated_Source\PSoC5/cyfitter_cfg.c **** 	AnalogSetDefault();
 802              		.loc 1 717 0
 803 0090 FFF7FEFF 		bl	AnalogSetDefault
 718:.\Generated_Source\PSoC5/cyfitter_cfg.c **** 
 719:.\Generated_Source\PSoC5/cyfitter_cfg.c **** 	/* Configure alternate active mode */
 720:.\Generated_Source\PSoC5/cyfitter_cfg.c **** 	CYCONFIGCPY((void CYFAR *)CYDEV_PM_STBY_BASE, (const void CYFAR *)CYDEV_PM_ACT_BASE, 14u);
 804              		.loc 1 720 0
 805 0094 0E48     		ldr	r0, .L37+48
 806 0096 0649     		ldr	r1, .L37+16
 807 0098 0E22     		movs	r2, #14
 808 009a FFF7FEFF 		bl	CYCONFIGCPY
 721:.\Generated_Source\PSoC5/cyfitter_cfg.c **** }
 809              		.loc 1 721 0
 810 009e 80BD     		pop	{r7, pc}
ARM GAS  C:\Users\ologa\AppData\Local\Temp\ccpCyAf8.s 			page 28


 811              	.L38:
 812              		.align	2
 813              	.L37:
 814 00a0 E8460040 		.word	1073759976
 815 00a4 00760040 		.word	1073772032
 816 00a8 03500140 		.word	1073827843
 817 00ac 13500140 		.word	1073827859
 818 00b0 A0430040 		.word	1073759136
 819 00b4 C2430040 		.word	1073759170
 820 00b8 10510040 		.word	1073762576
 821 00bc 8C100048 		.word	1207963788
 822 00c0 22510040 		.word	1073762594
 823 00c4 98100048 		.word	1207963800
 824 00c8 22430040 		.word	1073759010
 825 00cc 00480040 		.word	1073760256
 826 00d0 B0430040 		.word	1073759152
 827              		.cfi_endproc
 828              	.LFE8:
 829              		.size	cyfitter_cfg, .-cyfitter_cfg
 830              		.bss
 831              		.align	3
 832              	DMA_ZERO_VAL.4804:
 833 0000 00000000 		.space	4
 834 0004 00000000 		.section	.dma_init,"a",%progbits
 835              		.align	2
 836              		.type	CFG_TD_LIST0.4805, %object
 837              		.size	CFG_TD_LIST0.4805, 512
 838              	CFG_TD_LIST0.4805:
 839 0000 0800     		.short	8
 840 0002 02       		.byte	2
 841 0003 23       		.byte	35
 842 0004 0000     		.short	0
 843 0006 0876     		.short	30216
 844 0008 0800     		.short	8
 845 000a 03       		.byte	3
 846 000b 23       		.byte	35
 847 000c 0000     		.short	0
 848 000e 1076     		.short	30224
 849 0010 0800     		.short	8
 850 0012 04       		.byte	4
 851 0013 23       		.byte	35
 852 0014 0000     		.short	0
 853 0016 2876     		.short	30248
 854 0018 0800     		.short	8
 855 001a 05       		.byte	5
 856 001b 23       		.byte	35
 857 001c 0000     		.short	0
 858 001e 3076     		.short	30256
 859 0020 0500     		.short	5
 860 0022 06       		.byte	6
 861 0023 23       		.byte	35
 862 0024 0000     		.short	0
 863 0026 2070     		.short	28704
 864 0028 0500     		.short	5
 865 002a 07       		.byte	7
 866 002b 23       		.byte	35
 867 002c 0000     		.short	0
ARM GAS  C:\Users\ologa\AppData\Local\Temp\ccpCyAf8.s 			page 29


 868 002e 3070     		.short	28720
 869 0030 0500     		.short	5
 870 0032 08       		.byte	8
 871 0033 23       		.byte	35
 872 0034 0000     		.short	0
 873 0036 6070     		.short	28768
 874 0038 0500     		.short	5
 875 003a FE       		.byte	-2
 876 003b 23       		.byte	35
 877 003c 0000     		.short	0
 878 003e 7070     		.short	28784
 879 0040 1000     		.short	16
 880 0042 0A       		.byte	10
 881 0043 22       		.byte	34
 882 0044 0000     		.short	0
 883 0046 0051     		.short	20736
 884 0048 4000     		.short	64
 885 004a 0B       		.byte	11
 886 004b 22       		.byte	34
 887 004c 0000     		.short	0
 888 004e 3051     		.short	20784
 889 0050 1000     		.short	16
 890 0052 0C       		.byte	12
 891 0053 22       		.byte	34
 892 0054 0000     		.short	0
 893 0056 C051     		.short	20928
 894 0058 1000     		.short	16
 895 005a FE       		.byte	-2
 896 005b 22       		.byte	34
 897 005c 0000     		.short	0
 898 005e F051     		.short	20976
 899 0060 8003     		.short	896
 900 0062 0E       		.byte	14
 901 0063 22       		.byte	34
 902 0064 0000     		.short	0
 903 0066 0000     		.short	0
 904 0068 0004     		.short	1024
 905 006a 0F       		.byte	15
 906 006b 22       		.byte	34
 907 006c 0000     		.short	0
 908 006e 0004     		.short	1024
 909 0070 8001     		.short	384
 910 0072 10       		.byte	16
 911 0073 22       		.byte	34
 912 0074 0000     		.short	0
 913 0076 000C     		.short	3072
 914 0078 8000     		.short	128
 915 007a 11       		.byte	17
 916 007b 22       		.byte	34
 917 007c 0000     		.short	0
 918 007e 000E     		.short	3584
 919 0080 8000     		.short	128
 920 0082 12       		.byte	18
 921 0083 22       		.byte	34
 922 0084 0000     		.short	0
 923 0086 800F     		.short	3968
 924 0088 0004     		.short	1024
ARM GAS  C:\Users\ologa\AppData\Local\Temp\ccpCyAf8.s 			page 30


 925 008a 13       		.byte	19
 926 008b 22       		.byte	34
 927 008c 0000     		.short	0
 928 008e 0014     		.short	5120
 929 0090 8000     		.short	128
 930 0092 14       		.byte	20
 931 0093 22       		.byte	34
 932 0094 0000     		.short	0
 933 0096 0041     		.short	16640
 934 0098 0002     		.short	512
 935 009a 15       		.byte	21
 936 009b 22       		.byte	34
 937 009c 0000     		.short	0
 938 009e 0043     		.short	17152
 939 00a0 8000     		.short	128
 940 00a2 16       		.byte	22
 941 00a3 22       		.byte	34
 942 00a4 0000     		.short	0
 943 00a6 0046     		.short	17920
 944 00a8 8000     		.short	128
 945 00aa 17       		.byte	23
 946 00ab 22       		.byte	34
 947 00ac 0000     		.short	0
 948 00ae 0047     		.short	18176
 949 00b0 0002     		.short	512
 950 00b2 18       		.byte	24
 951 00b3 22       		.byte	34
 952 00b4 0000     		.short	0
 953 00b6 0048     		.short	18432
 954 00b8 8000     		.short	128
 955 00ba FE       		.byte	-2
 956 00bb 22       		.byte	34
 957 00bc 0000     		.short	0
 958 00be 004D     		.short	19712
 959 00c0 0700     		.short	7
 960 00c2 1A       		.byte	26
 961 00c3 23       		.byte	35
 962 00c4 0000     		.short	0
 963 00c6 0852     		.short	21000
 964 00c8 0700     		.short	7
 965 00ca 1B       		.byte	27
 966 00cb 23       		.byte	35
 967 00cc 0000     		.short	0
 968 00ce 1052     		.short	21008
 969 00d0 0C00     		.short	12
 970 00d2 1C       		.byte	28
 971 00d3 23       		.byte	35
 972 00d4 0000     		.short	0
 973 00d6 004F     		.short	20224
 974 00d8 2000     		.short	32
 975 00da 1D       		.byte	29
 976 00db 23       		.byte	35
 977 00dc 0000     		.short	0
 978 00de 7064     		.short	25712
 979 00e0 2000     		.short	32
 980 00e2 FE       		.byte	-2
 981 00e3 23       		.byte	35
ARM GAS  C:\Users\ologa\AppData\Local\Temp\ccpCyAf8.s 			page 31


 982 00e4 0000     		.short	0
 983 00e6 7065     		.short	25968
 984 00e8 0800     		.short	8
 985 00ea 1F       		.byte	31
 986 00eb 23       		.byte	35
 987 00ec 0000     		.short	0
 988 00ee 0051     		.short	20736
 989 00f0 8000     		.short	128
 990 00f2 20       		.byte	32
 991 00f3 23       		.byte	35
 992 00f4 0000     		.short	0
 993 00f6 0008     		.short	2048
 994 00f8 8000     		.short	128
 995 00fa 21       		.byte	33
 996 00fb 23       		.byte	35
 997 00fc 0000     		.short	0
 998 00fe 8008     		.short	2176
 999 0100 8000     		.short	128
 1000 0102 22       		.byte	34
 1001 0103 23       		.byte	35
 1002 0104 0000     		.short	0
 1003 0106 000A     		.short	2560
 1004 0108 8000     		.short	128
 1005 010a 23       		.byte	35
 1006 010b 23       		.byte	35
 1007 010c 0000     		.short	0
 1008 010e 800A     		.short	2688
 1009 0110 8000     		.short	128
 1010 0112 24       		.byte	36
 1011 0113 23       		.byte	35
 1012 0114 0000     		.short	0
 1013 0116 800E     		.short	3712
 1014 0118 8000     		.short	128
 1015 011a 25       		.byte	37
 1016 011b 23       		.byte	35
 1017 011c 0000     		.short	0
 1018 011e 0018     		.short	6144
 1019 0120 8000     		.short	128
 1020 0122 26       		.byte	38
 1021 0123 23       		.byte	35
 1022 0124 0000     		.short	0
 1023 0126 8018     		.short	6272
 1024 0128 8000     		.short	128
 1025 012a 27       		.byte	39
 1026 012b 23       		.byte	35
 1027 012c 0000     		.short	0
 1028 012e 001A     		.short	6656
 1029 0130 8000     		.short	128
 1030 0132 28       		.byte	40
 1031 0133 23       		.byte	35
 1032 0134 0000     		.short	0
 1033 0136 801A     		.short	6784
 1034 0138 1000     		.short	16
 1035 013a 29       		.byte	41
 1036 013b 23       		.byte	35
 1037 013c 0000     		.short	0
 1038 013e 1050     		.short	20496
ARM GAS  C:\Users\ologa\AppData\Local\Temp\ccpCyAf8.s 			page 32


 1039 0140 1000     		.short	16
 1040 0142 2A       		.byte	42
 1041 0143 23       		.byte	35
 1042 0144 0000     		.short	0
 1043 0146 0050     		.short	20480
 1044 0148 8000     		.short	128
 1045 014a 2B       		.byte	43
 1046 014b 23       		.byte	35
 1047 014c 0000     		.short	0
 1048 014e 804D     		.short	19840
 1049 0150 8000     		.short	128
 1050 0152 2C       		.byte	44
 1051 0153 23       		.byte	35
 1052 0154 0000     		.short	0
 1053 0156 004C     		.short	19456
 1054 0158 8000     		.short	128
 1055 015a 2D       		.byte	45
 1056 015b 23       		.byte	35
 1057 015c 0000     		.short	0
 1058 015e 804C     		.short	19584
 1059 0160 8000     		.short	128
 1060 0162 2E       		.byte	46
 1061 0163 23       		.byte	35
 1062 0164 0000     		.short	0
 1063 0166 8047     		.short	18304
 1064 0168 8000     		.short	128
 1065 016a 2F       		.byte	47
 1066 016b 23       		.byte	35
 1067 016c 0000     		.short	0
 1068 016e 8046     		.short	18048
 1069 0170 8000     		.short	128
 1070 0172 30       		.byte	48
 1071 0173 23       		.byte	35
 1072 0174 0000     		.short	0
 1073 0176 0045     		.short	17664
 1074 0178 8000     		.short	128
 1075 017a 31       		.byte	49
 1076 017b 23       		.byte	35
 1077 017c 0000     		.short	0
 1078 017e 8045     		.short	17792
 1079 0180 8000     		.short	128
 1080 0182 32       		.byte	50
 1081 0183 23       		.byte	35
 1082 0184 0000     		.short	0
 1083 0186 001B     		.short	6912
 1084 0188 8000     		.short	128
 1085 018a 33       		.byte	51
 1086 018b 23       		.byte	35
 1087 018c 0000     		.short	0
 1088 018e 801B     		.short	7040
 1089 0190 8000     		.short	128
 1090 0192 34       		.byte	52
 1091 0193 23       		.byte	35
 1092 0194 0000     		.short	0
 1093 0196 0019     		.short	6400
 1094 0198 8000     		.short	128
 1095 019a 35       		.byte	53
ARM GAS  C:\Users\ologa\AppData\Local\Temp\ccpCyAf8.s 			page 33


 1096 019b 23       		.byte	35
 1097 019c 0000     		.short	0
 1098 019e 8019     		.short	6528
 1099 01a0 8000     		.short	128
 1100 01a2 36       		.byte	54
 1101 01a3 23       		.byte	35
 1102 01a4 0000     		.short	0
 1103 01a6 0009     		.short	2304
 1104 01a8 8000     		.short	128
 1105 01aa 37       		.byte	55
 1106 01ab 23       		.byte	35
 1107 01ac 0000     		.short	0
 1108 01ae 8009     		.short	2432
 1109 01b0 8000     		.short	128
 1110 01b2 38       		.byte	56
 1111 01b3 23       		.byte	35
 1112 01b4 0000     		.short	0
 1113 01b6 000B     		.short	2816
 1114 01b8 8000     		.short	128
 1115 01ba 39       		.byte	57
 1116 01bb 23       		.byte	35
 1117 01bc 0000     		.short	0
 1118 01be 800B     		.short	2944
 1119 01c0 8000     		.short	128
 1120 01c2 3A       		.byte	58
 1121 01c3 23       		.byte	35
 1122 01c4 0000     		.short	0
 1123 01c6 800D     		.short	3456
 1124 01c8 8000     		.short	128
 1125 01ca 3B       		.byte	59
 1126 01cb 23       		.byte	35
 1127 01cc 0000     		.short	0
 1128 01ce 8003     		.short	896
 1129 01d0 8000     		.short	128
 1130 01d2 3C       		.byte	60
 1131 01d3 23       		.byte	35
 1132 01d4 0000     		.short	0
 1133 01d6 000F     		.short	3840
 1134 01d8 8000     		.short	128
 1135 01da 3D       		.byte	61
 1136 01db 23       		.byte	35
 1137 01dc 0000     		.short	0
 1138 01de 0042     		.short	16896
 1139 01e0 8000     		.short	128
 1140 01e2 3E       		.byte	62
 1141 01e3 23       		.byte	35
 1142 01e4 0000     		.short	0
 1143 01e6 8042     		.short	17024
 1144 01e8 8000     		.short	128
 1145 01ea 3F       		.byte	63
 1146 01eb 23       		.byte	35
 1147 01ec 0000     		.short	0
 1148 01ee 8041     		.short	16768
 1149 01f0 8000     		.short	128
 1150 01f2 40       		.byte	64
 1151 01f3 23       		.byte	35
 1152 01f4 0000     		.short	0
ARM GAS  C:\Users\ologa\AppData\Local\Temp\ccpCyAf8.s 			page 34


 1153 01f6 0040     		.short	16384
 1154 01f8 8000     		.short	128
 1155 01fa FE       		.byte	-2
 1156 01fb 23       		.byte	35
 1157 01fc 0000     		.short	0
 1158 01fe 8040     		.short	16512
 1159              		.section	.rodata
 1160              		.align	2
 1161              		.type	CFG_TD_ADDR0.4806, %object
 1162              		.size	CFG_TD_ADDR0.4806, 256
 1163              	CFG_TD_ADDR0.4806:
 1164 0000 20020000 		.word	CH1_ADDR_DATA0.4799
 1165 0004 18020000 		.word	CH2_ADDR_DATA0.4800
 1166 0008 10020000 		.word	CH5_ADDR_DATA0.4801
 1167 000c 08020000 		.word	CH6_ADDR_DATA0.4802
 1168 0010 00020000 		.word	DMA_TD_START_CMD.4803
 1169 0014 00020000 		.word	DMA_TD_START_CMD.4803
 1170 0018 00020000 		.word	DMA_TD_START_CMD.4803
 1171 001c 00020000 		.word	DMA_TD_START_CMD.4803
 1172 0020 00000000 		.word	DMA_ZERO_VAL.4804
 1173 0024 00000000 		.word	DMA_ZERO_VAL.4804
 1174 0028 00000000 		.word	DMA_ZERO_VAL.4804
 1175 002c 00000000 		.word	DMA_ZERO_VAL.4804
 1176 0030 00000000 		.word	DMA_ZERO_VAL.4804
 1177 0034 00000000 		.word	DMA_ZERO_VAL.4804
 1178 0038 00000000 		.word	DMA_ZERO_VAL.4804
 1179 003c 00000000 		.word	DMA_ZERO_VAL.4804
 1180 0040 00000000 		.word	DMA_ZERO_VAL.4804
 1181 0044 00000000 		.word	DMA_ZERO_VAL.4804
 1182 0048 00000000 		.word	DMA_ZERO_VAL.4804
 1183 004c 00000000 		.word	DMA_ZERO_VAL.4804
 1184 0050 00000000 		.word	DMA_ZERO_VAL.4804
 1185 0054 00000000 		.word	DMA_ZERO_VAL.4804
 1186 0058 00000000 		.word	DMA_ZERO_VAL.4804
 1187 005c 00000000 		.word	DMA_ZERO_VAL.4804
 1188 0060 08000048 		.word	1207959560
 1189 0064 10000048 		.word	1207959568
 1190 0068 20000048 		.word	1207959584
 1191 006c AC040048 		.word	1207960748
 1192 0070 CC040048 		.word	1207960780
 1193 0074 18000048 		.word	1207959576
 1194 0078 2C000048 		.word	1207959596
 1195 007c AC000048 		.word	1207959724
 1196 0080 2C010048 		.word	1207959852
 1197 0084 AC010048 		.word	1207959980
 1198 0088 2C020048 		.word	1207960108
 1199 008c AC020048 		.word	1207960236
 1200 0090 2C030048 		.word	1207960364
 1201 0094 AC030048 		.word	1207960492
 1202 0098 2C040048 		.word	1207960620
 1203 009c EC040048 		.word	1207960812
 1204 00a0 FC040048 		.word	1207960828
 1205 00a4 0C050048 		.word	1207960844
 1206 00a8 8C050048 		.word	1207960972
 1207 00ac 0C060048 		.word	1207961100
 1208 00b0 8C060048 		.word	1207961228
 1209 00b4 0C070048 		.word	1207961356
ARM GAS  C:\Users\ologa\AppData\Local\Temp\ccpCyAf8.s 			page 35


 1210 00b8 8C070048 		.word	1207961484
 1211 00bc 0C080048 		.word	1207961612
 1212 00c0 8C080048 		.word	1207961740
 1213 00c4 0C090048 		.word	1207961868
 1214 00c8 8C090048 		.word	1207961996
 1215 00cc 0C0A0048 		.word	1207962124
 1216 00d0 8C0A0048 		.word	1207962252
 1217 00d4 0C0B0048 		.word	1207962380
 1218 00d8 8C0B0048 		.word	1207962508
 1219 00dc 0C0C0048 		.word	1207962636
 1220 00e0 8C0C0048 		.word	1207962764
 1221 00e4 0C0D0048 		.word	1207962892
 1222 00e8 8C0D0048 		.word	1207963020
 1223 00ec 0C0E0048 		.word	1207963148
 1224 00f0 8C0E0048 		.word	1207963276
 1225 00f4 0C0F0048 		.word	1207963404
 1226 00f8 8C0F0048 		.word	1207963532
 1227 00fc 0C100048 		.word	1207963660
 1228              		.section	.dma_init
 1229              		.align	2
 1230              		.type	DMA_TD_START_CMD.4803, %object
 1231              		.size	DMA_TD_START_CMD.4803, 5
 1232              	DMA_TD_START_CMD.4803:
 1233 0200 01       		.byte	1
 1234 0201 00       		.byte	0
 1235 0202 00       		.byte	0
 1236 0203 00       		.byte	0
 1237 0204 01       		.byte	1
 1238 0205 000000   		.align	2
 1239              		.type	CH6_ADDR_DATA0.4802, %object
 1240              		.size	CH6_ADDR_DATA0.4802, 8
 1241              	CH6_ADDR_DATA0.4802:
 1242 0208 01       		.byte	1
 1243 0209 00       		.byte	0
 1244 020a 00       		.byte	0
 1245 020b 00       		.byte	0
 1246 020c 00       		.byte	0
 1247 020d 48       		.byte	72
 1248 020e 01       		.byte	1
 1249 020f 40       		.byte	64
 1250              		.align	2
 1251              		.type	CH5_ADDR_DATA0.4801, %object
 1252              		.size	CH5_ADDR_DATA0.4801, 8
 1253              	CH5_ADDR_DATA0.4801:
 1254 0210 01       		.byte	1
 1255 0211 00       		.byte	0
 1256 0212 00       		.byte	0
 1257 0213 00       		.byte	0
 1258 0214 00       		.byte	0
 1259 0215 48       		.byte	72
 1260 0216 00       		.byte	0
 1261 0217 40       		.byte	64
 1262              		.align	2
 1263              		.type	CH2_ADDR_DATA0.4800, %object
 1264              		.size	CH2_ADDR_DATA0.4800, 8
 1265              	CH2_ADDR_DATA0.4800:
 1266 0218 01       		.byte	1
ARM GAS  C:\Users\ologa\AppData\Local\Temp\ccpCyAf8.s 			page 36


 1267 0219 00       		.byte	0
 1268 021a 00       		.byte	0
 1269 021b 00       		.byte	0
 1270 021c 00       		.byte	0
 1271 021d 20       		.byte	32
 1272 021e 01       		.byte	1
 1273 021f 40       		.byte	64
 1274              		.align	2
 1275              		.type	CH1_ADDR_DATA0.4799, %object
 1276              		.size	CH1_ADDR_DATA0.4799, 8
 1277              	CH1_ADDR_DATA0.4799:
 1278 0220 01       		.byte	1
 1279 0221 00       		.byte	0
 1280 0222 00       		.byte	0
 1281 0223 00       		.byte	0
 1282 0224 00       		.byte	0
 1283 0225 20       		.byte	32
 1284 0226 00       		.byte	0
 1285 0227 40       		.byte	64
 1286              		.text
 1287              	.Letext0:
 1288              		.file 2 "c:\\program files (x86)\\cypress\\psoc creator\\3.3\\psoc creator\\import\\gnu\\arm\\4.9.
 1289              		.file 3 ".\\Generated_Source\\PSoC5\\cytypes.h"