ARM GAS  C:\Users\ologa\AppData\Local\Temp\ccABvJ60.s 			page 1


   1              		.syntax unified
   2              		.cpu cortex-m3
   3              		.fpu softvfp
   4              		.eabi_attribute 20, 1
   5              		.eabi_attribute 21, 1
   6              		.eabi_attribute 23, 3
   7              		.eabi_attribute 24, 1
   8              		.eabi_attribute 25, 1
   9              		.eabi_attribute 26, 1
  10              		.eabi_attribute 30, 6
  11              		.eabi_attribute 34, 1
  12              		.eabi_attribute 18, 4
  13              		.thumb
  14              		.file	"HSYNC_PM.c"
  15              		.text
  16              	.Ltext0:
  17              		.cfi_sections	.debug_frame
  18              		.bss
  19              		.align	2
  20              	HSYNC_backup:
  21 0000 00000000 		.space	4
  22              		.section	.text.HSYNC_SaveConfig,"ax",%progbits
  23              		.align	2
  24              		.global	HSYNC_SaveConfig
  25              		.thumb
  26              		.thumb_func
  27              		.type	HSYNC_SaveConfig, %function
  28              	HSYNC_SaveConfig:
  29              	.LFB0:
  30              		.file 1 ".\\Generated_Source\\PSoC5\\HSYNC_PM.c"
   1:.\Generated_Source\PSoC5/HSYNC_PM.c **** /*******************************************************************************
   2:.\Generated_Source\PSoC5/HSYNC_PM.c **** * File Name: HSYNC_PM.c
   3:.\Generated_Source\PSoC5/HSYNC_PM.c **** * Version 3.0
   4:.\Generated_Source\PSoC5/HSYNC_PM.c **** *
   5:.\Generated_Source\PSoC5/HSYNC_PM.c **** * Description:
   6:.\Generated_Source\PSoC5/HSYNC_PM.c **** *  This file provides the power management source code to API for the
   7:.\Generated_Source\PSoC5/HSYNC_PM.c **** *  PWM.
   8:.\Generated_Source\PSoC5/HSYNC_PM.c **** *
   9:.\Generated_Source\PSoC5/HSYNC_PM.c **** * Note:
  10:.\Generated_Source\PSoC5/HSYNC_PM.c **** *
  11:.\Generated_Source\PSoC5/HSYNC_PM.c **** ********************************************************************************
  12:.\Generated_Source\PSoC5/HSYNC_PM.c **** * Copyright 2008-2012, Cypress Semiconductor Corporation.  All rights reserved.
  13:.\Generated_Source\PSoC5/HSYNC_PM.c **** * You may use this file only in accordance with the license, terms, conditions,
  14:.\Generated_Source\PSoC5/HSYNC_PM.c **** * disclaimers, and limitations in the end user license agreement accompanying
  15:.\Generated_Source\PSoC5/HSYNC_PM.c **** * the software package with which this file was provided.
  16:.\Generated_Source\PSoC5/HSYNC_PM.c **** *******************************************************************************/
  17:.\Generated_Source\PSoC5/HSYNC_PM.c **** #include "cytypes.h"
  18:.\Generated_Source\PSoC5/HSYNC_PM.c **** #include "HSYNC.h"
  19:.\Generated_Source\PSoC5/HSYNC_PM.c **** 
  20:.\Generated_Source\PSoC5/HSYNC_PM.c **** static HSYNC_backupStruct HSYNC_backup;
  21:.\Generated_Source\PSoC5/HSYNC_PM.c **** 
  22:.\Generated_Source\PSoC5/HSYNC_PM.c **** 
  23:.\Generated_Source\PSoC5/HSYNC_PM.c **** /*******************************************************************************
  24:.\Generated_Source\PSoC5/HSYNC_PM.c **** * Function Name: HSYNC_SaveConfig
  25:.\Generated_Source\PSoC5/HSYNC_PM.c **** ********************************************************************************
  26:.\Generated_Source\PSoC5/HSYNC_PM.c **** *
  27:.\Generated_Source\PSoC5/HSYNC_PM.c **** * Summary:
ARM GAS  C:\Users\ologa\AppData\Local\Temp\ccABvJ60.s 			page 2


  28:.\Generated_Source\PSoC5/HSYNC_PM.c **** *  Saves the current user configuration of the component.
  29:.\Generated_Source\PSoC5/HSYNC_PM.c **** *  
  30:.\Generated_Source\PSoC5/HSYNC_PM.c **** * Parameters:  
  31:.\Generated_Source\PSoC5/HSYNC_PM.c **** *  None
  32:.\Generated_Source\PSoC5/HSYNC_PM.c **** *
  33:.\Generated_Source\PSoC5/HSYNC_PM.c **** * Return: 
  34:.\Generated_Source\PSoC5/HSYNC_PM.c **** *  None
  35:.\Generated_Source\PSoC5/HSYNC_PM.c **** *
  36:.\Generated_Source\PSoC5/HSYNC_PM.c **** * Global variables:
  37:.\Generated_Source\PSoC5/HSYNC_PM.c **** *  HSYNC_backup:  Variables of this global structure are modified to 
  38:.\Generated_Source\PSoC5/HSYNC_PM.c **** *  store the values of non retention configuration registers when Sleep() API is 
  39:.\Generated_Source\PSoC5/HSYNC_PM.c **** *  called.
  40:.\Generated_Source\PSoC5/HSYNC_PM.c **** *
  41:.\Generated_Source\PSoC5/HSYNC_PM.c **** *******************************************************************************/
  42:.\Generated_Source\PSoC5/HSYNC_PM.c **** void HSYNC_SaveConfig(void) 
  43:.\Generated_Source\PSoC5/HSYNC_PM.c **** {
  31              		.loc 1 43 0
  32              		.cfi_startproc
  33              		@ args = 0, pretend = 0, frame = 0
  34              		@ frame_needed = 1, uses_anonymous_args = 0
  35 0000 80B5     		push	{r7, lr}
  36              		.cfi_def_cfa_offset 8
  37              		.cfi_offset 7, -8
  38              		.cfi_offset 14, -4
  39 0002 00AF     		add	r7, sp, #0
  40              		.cfi_def_cfa_register 7
  44:.\Generated_Source\PSoC5/HSYNC_PM.c ****     
  45:.\Generated_Source\PSoC5/HSYNC_PM.c ****     #if(!HSYNC_UsingFixedFunction)
  46:.\Generated_Source\PSoC5/HSYNC_PM.c ****         #if(!HSYNC_PWMModeIsCenterAligned)
  47:.\Generated_Source\PSoC5/HSYNC_PM.c ****             HSYNC_backup.PWMPeriod = HSYNC_ReadPeriod();
  41              		.loc 1 47 0
  42 0004 FFF7FEFF 		bl	HSYNC_ReadPeriod
  43 0008 0346     		mov	r3, r0
  44 000a 1A46     		mov	r2, r3
  45 000c 074B     		ldr	r3, .L2
  46 000e 9A70     		strb	r2, [r3, #2]
  48:.\Generated_Source\PSoC5/HSYNC_PM.c ****         #endif /* (!HSYNC_PWMModeIsCenterAligned) */
  49:.\Generated_Source\PSoC5/HSYNC_PM.c ****         HSYNC_backup.PWMUdb = HSYNC_ReadCounter();
  47              		.loc 1 49 0
  48 0010 FFF7FEFF 		bl	HSYNC_ReadCounter
  49 0014 0346     		mov	r3, r0
  50 0016 1A46     		mov	r2, r3
  51 0018 044B     		ldr	r3, .L2
  52 001a 5A70     		strb	r2, [r3, #1]
  50:.\Generated_Source\PSoC5/HSYNC_PM.c ****         #if (HSYNC_UseStatus)
  51:.\Generated_Source\PSoC5/HSYNC_PM.c ****             HSYNC_backup.InterruptMaskValue = HSYNC_STATUS_MASK;
  52:.\Generated_Source\PSoC5/HSYNC_PM.c ****         #endif /* (HSYNC_UseStatus) */
  53:.\Generated_Source\PSoC5/HSYNC_PM.c ****         
  54:.\Generated_Source\PSoC5/HSYNC_PM.c ****         #if(HSYNC_DeadBandMode == HSYNC__B_PWM__DBM_256_CLOCKS || \
  55:.\Generated_Source\PSoC5/HSYNC_PM.c ****             HSYNC_DeadBandMode == HSYNC__B_PWM__DBM_2_4_CLOCKS)
  56:.\Generated_Source\PSoC5/HSYNC_PM.c ****             HSYNC_backup.PWMdeadBandValue = HSYNC_ReadDeadTime();
  57:.\Generated_Source\PSoC5/HSYNC_PM.c ****         #endif /*  deadband count is either 2-4 clocks or 256 clocks */
  58:.\Generated_Source\PSoC5/HSYNC_PM.c ****         
  59:.\Generated_Source\PSoC5/HSYNC_PM.c ****         #if(HSYNC_KillModeMinTime)
  60:.\Generated_Source\PSoC5/HSYNC_PM.c ****              HSYNC_backup.PWMKillCounterPeriod = HSYNC_ReadKillTime();
  61:.\Generated_Source\PSoC5/HSYNC_PM.c ****         #endif /* (HSYNC_KillModeMinTime) */
  62:.\Generated_Source\PSoC5/HSYNC_PM.c ****         
ARM GAS  C:\Users\ologa\AppData\Local\Temp\ccABvJ60.s 			page 3


  63:.\Generated_Source\PSoC5/HSYNC_PM.c ****         #if(HSYNC_UseControl)
  64:.\Generated_Source\PSoC5/HSYNC_PM.c ****             HSYNC_backup.PWMControlRegister = HSYNC_ReadControlRegister();
  53              		.loc 1 64 0
  54 001c FFF7FEFF 		bl	HSYNC_ReadControlRegister
  55 0020 0346     		mov	r3, r0
  56 0022 1A46     		mov	r2, r3
  57 0024 014B     		ldr	r3, .L2
  58 0026 DA70     		strb	r2, [r3, #3]
  65:.\Generated_Source\PSoC5/HSYNC_PM.c ****         #endif /* (HSYNC_UseControl) */
  66:.\Generated_Source\PSoC5/HSYNC_PM.c ****     #endif  /* (!HSYNC_UsingFixedFunction) */
  67:.\Generated_Source\PSoC5/HSYNC_PM.c **** }
  59              		.loc 1 67 0
  60 0028 80BD     		pop	{r7, pc}
  61              	.L3:
  62 002a 00BF     		.align	2
  63              	.L2:
  64 002c 00000000 		.word	HSYNC_backup
  65              		.cfi_endproc
  66              	.LFE0:
  67              		.size	HSYNC_SaveConfig, .-HSYNC_SaveConfig
  68              		.section	.text.HSYNC_RestoreConfig,"ax",%progbits
  69              		.align	2
  70              		.global	HSYNC_RestoreConfig
  71              		.thumb
  72              		.thumb_func
  73              		.type	HSYNC_RestoreConfig, %function
  74              	HSYNC_RestoreConfig:
  75              	.LFB1:
  68:.\Generated_Source\PSoC5/HSYNC_PM.c **** 
  69:.\Generated_Source\PSoC5/HSYNC_PM.c **** 
  70:.\Generated_Source\PSoC5/HSYNC_PM.c **** /*******************************************************************************
  71:.\Generated_Source\PSoC5/HSYNC_PM.c **** * Function Name: HSYNC_RestoreConfig
  72:.\Generated_Source\PSoC5/HSYNC_PM.c **** ********************************************************************************
  73:.\Generated_Source\PSoC5/HSYNC_PM.c **** * 
  74:.\Generated_Source\PSoC5/HSYNC_PM.c **** * Summary:
  75:.\Generated_Source\PSoC5/HSYNC_PM.c **** *  Restores the current user configuration of the component.
  76:.\Generated_Source\PSoC5/HSYNC_PM.c **** *
  77:.\Generated_Source\PSoC5/HSYNC_PM.c **** * Parameters:  
  78:.\Generated_Source\PSoC5/HSYNC_PM.c **** *  None
  79:.\Generated_Source\PSoC5/HSYNC_PM.c **** *
  80:.\Generated_Source\PSoC5/HSYNC_PM.c **** * Return: 
  81:.\Generated_Source\PSoC5/HSYNC_PM.c **** *  None
  82:.\Generated_Source\PSoC5/HSYNC_PM.c **** *
  83:.\Generated_Source\PSoC5/HSYNC_PM.c **** * Global variables:
  84:.\Generated_Source\PSoC5/HSYNC_PM.c **** *  HSYNC_backup:  Variables of this global structure are used to  
  85:.\Generated_Source\PSoC5/HSYNC_PM.c **** *  restore the values of non retention registers on wakeup from sleep mode.
  86:.\Generated_Source\PSoC5/HSYNC_PM.c **** *
  87:.\Generated_Source\PSoC5/HSYNC_PM.c **** *******************************************************************************/
  88:.\Generated_Source\PSoC5/HSYNC_PM.c **** void HSYNC_RestoreConfig(void) 
  89:.\Generated_Source\PSoC5/HSYNC_PM.c **** {
  76              		.loc 1 89 0
  77              		.cfi_startproc
  78              		@ args = 0, pretend = 0, frame = 0
  79              		@ frame_needed = 1, uses_anonymous_args = 0
  80 0000 80B5     		push	{r7, lr}
  81              		.cfi_def_cfa_offset 8
  82              		.cfi_offset 7, -8
ARM GAS  C:\Users\ologa\AppData\Local\Temp\ccABvJ60.s 			page 4


  83              		.cfi_offset 14, -4
  84 0002 00AF     		add	r7, sp, #0
  85              		.cfi_def_cfa_register 7
  90:.\Generated_Source\PSoC5/HSYNC_PM.c ****         #if(!HSYNC_UsingFixedFunction)
  91:.\Generated_Source\PSoC5/HSYNC_PM.c ****             #if(!HSYNC_PWMModeIsCenterAligned)
  92:.\Generated_Source\PSoC5/HSYNC_PM.c ****                 HSYNC_WritePeriod(HSYNC_backup.PWMPeriod);
  86              		.loc 1 92 0
  87 0004 074B     		ldr	r3, .L5
  88 0006 9B78     		ldrb	r3, [r3, #2]	@ zero_extendqisi2
  89 0008 1846     		mov	r0, r3
  90 000a FFF7FEFF 		bl	HSYNC_WritePeriod
  93:.\Generated_Source\PSoC5/HSYNC_PM.c ****             #endif /* (!HSYNC_PWMModeIsCenterAligned) */
  94:.\Generated_Source\PSoC5/HSYNC_PM.c ****             HSYNC_WriteCounter(HSYNC_backup.PWMUdb);
  91              		.loc 1 94 0
  92 000e 054B     		ldr	r3, .L5
  93 0010 5B78     		ldrb	r3, [r3, #1]	@ zero_extendqisi2
  94 0012 1846     		mov	r0, r3
  95 0014 FFF7FEFF 		bl	HSYNC_WriteCounter
  95:.\Generated_Source\PSoC5/HSYNC_PM.c ****             #if (HSYNC_UseStatus)
  96:.\Generated_Source\PSoC5/HSYNC_PM.c ****                 HSYNC_STATUS_MASK = HSYNC_backup.InterruptMaskValue;
  97:.\Generated_Source\PSoC5/HSYNC_PM.c ****             #endif /* (HSYNC_UseStatus) */
  98:.\Generated_Source\PSoC5/HSYNC_PM.c ****             
  99:.\Generated_Source\PSoC5/HSYNC_PM.c ****             #if(HSYNC_DeadBandMode == HSYNC__B_PWM__DBM_256_CLOCKS || \
 100:.\Generated_Source\PSoC5/HSYNC_PM.c ****                 HSYNC_DeadBandMode == HSYNC__B_PWM__DBM_2_4_CLOCKS)
 101:.\Generated_Source\PSoC5/HSYNC_PM.c ****                 HSYNC_WriteDeadTime(HSYNC_backup.PWMdeadBandValue);
 102:.\Generated_Source\PSoC5/HSYNC_PM.c ****             #endif /* deadband count is either 2-4 clocks or 256 clocks */
 103:.\Generated_Source\PSoC5/HSYNC_PM.c ****             
 104:.\Generated_Source\PSoC5/HSYNC_PM.c ****             #if(HSYNC_KillModeMinTime)
 105:.\Generated_Source\PSoC5/HSYNC_PM.c ****                 HSYNC_WriteKillTime(HSYNC_backup.PWMKillCounterPeriod);
 106:.\Generated_Source\PSoC5/HSYNC_PM.c ****             #endif /* (HSYNC_KillModeMinTime) */
 107:.\Generated_Source\PSoC5/HSYNC_PM.c ****             
 108:.\Generated_Source\PSoC5/HSYNC_PM.c ****             #if(HSYNC_UseControl)
 109:.\Generated_Source\PSoC5/HSYNC_PM.c ****                 HSYNC_WriteControlRegister(HSYNC_backup.PWMControlRegister); 
  96              		.loc 1 109 0
  97 0018 024B     		ldr	r3, .L5
  98 001a DB78     		ldrb	r3, [r3, #3]	@ zero_extendqisi2
  99 001c 1846     		mov	r0, r3
 100 001e FFF7FEFF 		bl	HSYNC_WriteControlRegister
 110:.\Generated_Source\PSoC5/HSYNC_PM.c ****             #endif /* (HSYNC_UseControl) */
 111:.\Generated_Source\PSoC5/HSYNC_PM.c ****         #endif  /* (!HSYNC_UsingFixedFunction) */
 112:.\Generated_Source\PSoC5/HSYNC_PM.c ****     }
 101              		.loc 1 112 0
 102 0022 80BD     		pop	{r7, pc}
 103              	.L6:
 104              		.align	2
 105              	.L5:
 106 0024 00000000 		.word	HSYNC_backup
 107              		.cfi_endproc
 108              	.LFE1:
 109              		.size	HSYNC_RestoreConfig, .-HSYNC_RestoreConfig
 110              		.section	.text.HSYNC_Sleep,"ax",%progbits
 111              		.align	2
 112              		.global	HSYNC_Sleep
 113              		.thumb
 114              		.thumb_func
 115              		.type	HSYNC_Sleep, %function
 116              	HSYNC_Sleep:
ARM GAS  C:\Users\ologa\AppData\Local\Temp\ccABvJ60.s 			page 5


 117              	.LFB2:
 113:.\Generated_Source\PSoC5/HSYNC_PM.c **** 
 114:.\Generated_Source\PSoC5/HSYNC_PM.c **** 
 115:.\Generated_Source\PSoC5/HSYNC_PM.c **** /*******************************************************************************
 116:.\Generated_Source\PSoC5/HSYNC_PM.c **** * Function Name: HSYNC_Sleep
 117:.\Generated_Source\PSoC5/HSYNC_PM.c **** ********************************************************************************
 118:.\Generated_Source\PSoC5/HSYNC_PM.c **** * 
 119:.\Generated_Source\PSoC5/HSYNC_PM.c **** * Summary:
 120:.\Generated_Source\PSoC5/HSYNC_PM.c **** *  Disables block's operation and saves the user configuration. Should be called 
 121:.\Generated_Source\PSoC5/HSYNC_PM.c **** *  just prior to entering sleep.
 122:.\Generated_Source\PSoC5/HSYNC_PM.c **** *  
 123:.\Generated_Source\PSoC5/HSYNC_PM.c **** * Parameters:  
 124:.\Generated_Source\PSoC5/HSYNC_PM.c **** *  None
 125:.\Generated_Source\PSoC5/HSYNC_PM.c **** *
 126:.\Generated_Source\PSoC5/HSYNC_PM.c **** * Return: 
 127:.\Generated_Source\PSoC5/HSYNC_PM.c **** *  None
 128:.\Generated_Source\PSoC5/HSYNC_PM.c **** *
 129:.\Generated_Source\PSoC5/HSYNC_PM.c **** * Global variables:
 130:.\Generated_Source\PSoC5/HSYNC_PM.c **** *  HSYNC_backup.PWMEnableState:  Is modified depending on the enable 
 131:.\Generated_Source\PSoC5/HSYNC_PM.c **** *  state of the block before entering sleep mode.
 132:.\Generated_Source\PSoC5/HSYNC_PM.c **** *
 133:.\Generated_Source\PSoC5/HSYNC_PM.c **** *******************************************************************************/
 134:.\Generated_Source\PSoC5/HSYNC_PM.c **** void HSYNC_Sleep(void) 
 135:.\Generated_Source\PSoC5/HSYNC_PM.c **** {
 118              		.loc 1 135 0
 119              		.cfi_startproc
 120              		@ args = 0, pretend = 0, frame = 0
 121              		@ frame_needed = 1, uses_anonymous_args = 0
 122 0000 80B5     		push	{r7, lr}
 123              		.cfi_def_cfa_offset 8
 124              		.cfi_offset 7, -8
 125              		.cfi_offset 14, -4
 126 0002 00AF     		add	r7, sp, #0
 127              		.cfi_def_cfa_register 7
 136:.\Generated_Source\PSoC5/HSYNC_PM.c ****     #if(HSYNC_UseControl)
 137:.\Generated_Source\PSoC5/HSYNC_PM.c ****         if(HSYNC_CTRL_ENABLE == (HSYNC_CONTROL & HSYNC_CTRL_ENABLE))
 128              		.loc 1 137 0
 129 0004 094B     		ldr	r3, .L10
 130 0006 1B78     		ldrb	r3, [r3]
 131 0008 DBB2     		uxtb	r3, r3
 132 000a DBB2     		uxtb	r3, r3
 133 000c 5BB2     		sxtb	r3, r3
 134 000e 002B     		cmp	r3, #0
 135 0010 03DA     		bge	.L8
 138:.\Generated_Source\PSoC5/HSYNC_PM.c ****         {
 139:.\Generated_Source\PSoC5/HSYNC_PM.c ****             /*Component is enabled */
 140:.\Generated_Source\PSoC5/HSYNC_PM.c ****             HSYNC_backup.PWMEnableState = 1u;
 136              		.loc 1 140 0
 137 0012 074B     		ldr	r3, .L10+4
 138 0014 0122     		movs	r2, #1
 139 0016 1A70     		strb	r2, [r3]
 140 0018 02E0     		b	.L9
 141              	.L8:
 141:.\Generated_Source\PSoC5/HSYNC_PM.c ****         }
 142:.\Generated_Source\PSoC5/HSYNC_PM.c ****         else
 143:.\Generated_Source\PSoC5/HSYNC_PM.c ****         {
 144:.\Generated_Source\PSoC5/HSYNC_PM.c ****             /* Component is disabled */
ARM GAS  C:\Users\ologa\AppData\Local\Temp\ccABvJ60.s 			page 6


 145:.\Generated_Source\PSoC5/HSYNC_PM.c ****             HSYNC_backup.PWMEnableState = 0u;
 142              		.loc 1 145 0
 143 001a 054B     		ldr	r3, .L10+4
 144 001c 0022     		movs	r2, #0
 145 001e 1A70     		strb	r2, [r3]
 146              	.L9:
 146:.\Generated_Source\PSoC5/HSYNC_PM.c ****         }
 147:.\Generated_Source\PSoC5/HSYNC_PM.c ****     #endif /* (HSYNC_UseControl) */
 148:.\Generated_Source\PSoC5/HSYNC_PM.c **** 
 149:.\Generated_Source\PSoC5/HSYNC_PM.c ****     /* Stop component */
 150:.\Generated_Source\PSoC5/HSYNC_PM.c ****     HSYNC_Stop();
 147              		.loc 1 150 0
 148 0020 FFF7FEFF 		bl	HSYNC_Stop
 151:.\Generated_Source\PSoC5/HSYNC_PM.c ****     
 152:.\Generated_Source\PSoC5/HSYNC_PM.c ****     /* Save registers configuration */
 153:.\Generated_Source\PSoC5/HSYNC_PM.c ****     HSYNC_SaveConfig();
 149              		.loc 1 153 0
 150 0024 FFF7FEFF 		bl	HSYNC_SaveConfig
 154:.\Generated_Source\PSoC5/HSYNC_PM.c **** }
 151              		.loc 1 154 0
 152 0028 80BD     		pop	{r7, pc}
 153              	.L11:
 154 002a 00BF     		.align	2
 155              	.L10:
 156 002c 7A650040 		.word	1073767802
 157 0030 00000000 		.word	HSYNC_backup
 158              		.cfi_endproc
 159              	.LFE2:
 160              		.size	HSYNC_Sleep, .-HSYNC_Sleep
 161              		.section	.text.HSYNC_Wakeup,"ax",%progbits
 162              		.align	2
 163              		.global	HSYNC_Wakeup
 164              		.thumb
 165              		.thumb_func
 166              		.type	HSYNC_Wakeup, %function
 167              	HSYNC_Wakeup:
 168              	.LFB3:
 155:.\Generated_Source\PSoC5/HSYNC_PM.c **** 
 156:.\Generated_Source\PSoC5/HSYNC_PM.c **** 
 157:.\Generated_Source\PSoC5/HSYNC_PM.c **** /*******************************************************************************
 158:.\Generated_Source\PSoC5/HSYNC_PM.c **** * Function Name: HSYNC_Wakeup
 159:.\Generated_Source\PSoC5/HSYNC_PM.c **** ********************************************************************************
 160:.\Generated_Source\PSoC5/HSYNC_PM.c **** * 
 161:.\Generated_Source\PSoC5/HSYNC_PM.c **** * Summary:
 162:.\Generated_Source\PSoC5/HSYNC_PM.c **** *  Restores and enables the user configuration. Should be called just after 
 163:.\Generated_Source\PSoC5/HSYNC_PM.c **** *  awaking from sleep.
 164:.\Generated_Source\PSoC5/HSYNC_PM.c **** *  
 165:.\Generated_Source\PSoC5/HSYNC_PM.c **** * Parameters:  
 166:.\Generated_Source\PSoC5/HSYNC_PM.c **** *  None
 167:.\Generated_Source\PSoC5/HSYNC_PM.c **** *
 168:.\Generated_Source\PSoC5/HSYNC_PM.c **** * Return: 
 169:.\Generated_Source\PSoC5/HSYNC_PM.c **** *  None
 170:.\Generated_Source\PSoC5/HSYNC_PM.c **** *
 171:.\Generated_Source\PSoC5/HSYNC_PM.c **** * Global variables:
 172:.\Generated_Source\PSoC5/HSYNC_PM.c **** *  HSYNC_backup.pwmEnable:  Is used to restore the enable state of 
 173:.\Generated_Source\PSoC5/HSYNC_PM.c **** *  block on wakeup from sleep mode.
 174:.\Generated_Source\PSoC5/HSYNC_PM.c **** *
ARM GAS  C:\Users\ologa\AppData\Local\Temp\ccABvJ60.s 			page 7


 175:.\Generated_Source\PSoC5/HSYNC_PM.c **** *******************************************************************************/
 176:.\Generated_Source\PSoC5/HSYNC_PM.c **** void HSYNC_Wakeup(void) 
 177:.\Generated_Source\PSoC5/HSYNC_PM.c **** {
 169              		.loc 1 177 0
 170              		.cfi_startproc
 171              		@ args = 0, pretend = 0, frame = 0
 172              		@ frame_needed = 1, uses_anonymous_args = 0
 173 0000 80B5     		push	{r7, lr}
 174              		.cfi_def_cfa_offset 8
 175              		.cfi_offset 7, -8
 176              		.cfi_offset 14, -4
 177 0002 00AF     		add	r7, sp, #0
 178              		.cfi_def_cfa_register 7
 178:.\Generated_Source\PSoC5/HSYNC_PM.c ****      /* Restore registers values */
 179:.\Generated_Source\PSoC5/HSYNC_PM.c ****     HSYNC_RestoreConfig();
 179              		.loc 1 179 0
 180 0004 FFF7FEFF 		bl	HSYNC_RestoreConfig
 180:.\Generated_Source\PSoC5/HSYNC_PM.c ****     
 181:.\Generated_Source\PSoC5/HSYNC_PM.c ****     if(HSYNC_backup.PWMEnableState != 0u)
 181              		.loc 1 181 0
 182 0008 034B     		ldr	r3, .L14
 183 000a 1B78     		ldrb	r3, [r3]	@ zero_extendqisi2
 184 000c 002B     		cmp	r3, #0
 185 000e 01D0     		beq	.L12
 182:.\Generated_Source\PSoC5/HSYNC_PM.c ****     {
 183:.\Generated_Source\PSoC5/HSYNC_PM.c ****         /* Enable component's operation */
 184:.\Generated_Source\PSoC5/HSYNC_PM.c ****         HSYNC_Enable();
 186              		.loc 1 184 0
 187 0010 FFF7FEFF 		bl	HSYNC_Enable
 188              	.L12:
 185:.\Generated_Source\PSoC5/HSYNC_PM.c ****     } /* Do nothing if component's block was disabled before */
 186:.\Generated_Source\PSoC5/HSYNC_PM.c ****     
 187:.\Generated_Source\PSoC5/HSYNC_PM.c **** }
 189              		.loc 1 187 0
 190 0014 80BD     		pop	{r7, pc}
 191              	.L15:
 192 0016 00BF     		.align	2
 193              	.L14:
 194 0018 00000000 		.word	HSYNC_backup
 195              		.cfi_endproc
 196              	.LFE3:
 197              		.size	HSYNC_Wakeup, .-HSYNC_Wakeup
 198              		.text
 199              	.Letext0:
 200              		.file 2 ".\\Generated_Source\\PSoC5\\cytypes.h"
 201              		.file 3 ".\\Generated_Source\\PSoC5\\HSYNC.h"