ARM GAS  C:\Users\ologa\AppData\Local\Temp\cciH0f3t.s 			page 1


   1              		.syntax unified
   2              		.cpu cortex-m3
   3              		.fpu softvfp
   4              		.eabi_attribute 20, 1
   5              		.eabi_attribute 21, 1
   6              		.eabi_attribute 23, 3
   7              		.eabi_attribute 24, 1
   8              		.eabi_attribute 25, 1
   9              		.eabi_attribute 26, 1
  10              		.eabi_attribute 30, 6
  11              		.eabi_attribute 34, 1
  12              		.eabi_attribute 18, 4
  13              		.thumb
  14              		.file	"main.c"
  15              		.text
  16              	.Ltext0:
  17              		.cfi_sections	.debug_frame
  18              		.comm	buf,12288,4
  19              		.global	vbuf
  20              		.section	.vram,"aw",%progbits
  21              		.align	2
  22              		.type	vbuf, %object
  23              		.size	vbuf, 12288
  24              	vbuf:
  25 0000 00000000 		.space	12288
  25      00000000 
  25      00000000 
  25      00000000 
  25      00000000 
  26              		.comm	dma_chan,1,1
  27              		.comm	dma_td,1,1
  28              		.global	flag
  29              		.data
  30              		.align	2
  31              		.type	flag, %object
  32              		.size	flag, 4
  33              	flag:
  34 0000 01000000 		.word	1
  35              		.section	.text.newline,"ax",%progbits
  36              		.align	2
  37              		.global	newline
  38              		.thumb
  39              		.thumb_func
  40              		.type	newline, %function
  41              	newline:
  42              	.LFB56:
  43              		.file 1 ".\\main.c"
   1:.\main.c      **** #include <device.h>
   2:.\main.c      **** 
   3:.\main.c      **** // Video buffer gets its own SRAM to prevent bus contention.
   4:.\main.c      **** // The user-facing buffer is in regular system RAM.
   5:.\main.c      **** // This is set in the custom linker script (custom.ld).
   6:.\main.c      **** uint8 buf[96][128], vbuf[96][128] __attribute__ ((section(".vram")));
   7:.\main.c      **** 
   8:.\main.c      **** // Now we set up the DMA to copy pixels from vbuf to the screen.
   9:.\main.c      **** // For timing, we rely on the fact that it takes the DMA exactly
  10:.\main.c      **** // 8 clocks to move each byte. After each line the DMA is updated
ARM GAS  C:\Users\ologa\AppData\Local\Temp\cciH0f3t.s 			page 2


  11:.\main.c      **** // to point to the next line in vbuf.
  12:.\main.c      **** uint8 dma_chan, dma_td;
  13:.\main.c      **** volatile int flag = 1;
  14:.\main.c      **** CY_ISR(newline) {
  44              		.loc 1 14 0
  45              		.cfi_startproc
  46              		@ args = 0, pretend = 0, frame = 8
  47              		@ frame_needed = 1, uses_anonymous_args = 0
  48 0000 80B5     		push	{r7, lr}
  49              		.cfi_def_cfa_offset 8
  50              		.cfi_offset 7, -8
  51              		.cfi_offset 14, -4
  52 0002 82B0     		sub	sp, sp, #8
  53              		.cfi_def_cfa_offset 16
  54 0004 00AF     		add	r7, sp, #0
  55              		.cfi_def_cfa_register 7
  15:.\main.c      ****     uint16 line = 805 - VERT_ReadCounter();
  56              		.loc 1 15 0
  57 0006 FFF7FEFF 		bl	VERT_ReadCounter
  58 000a 0346     		mov	r3, r0
  59 000c C3F54973 		rsb	r3, r3, #804
  60 0010 0133     		adds	r3, r3, #1
  61 0012 FB80     		strh	r3, [r7, #6]	@ movhi
  16:.\main.c      ****     if (line % 8 == 0) {
  62              		.loc 1 16 0
  63 0014 FB88     		ldrh	r3, [r7, #6]	@ movhi
  64 0016 03F00703 		and	r3, r3, #7
  65 001a 9BB2     		uxth	r3, r3
  66 001c 002B     		cmp	r3, #0
  67 001e 39D1     		bne	.L1
  17:.\main.c      ****         if (line < 768) {
  68              		.loc 1 17 0
  69 0020 FB88     		ldrh	r3, [r7, #6]
  70 0022 B3F5407F 		cmp	r3, #768
  71 0026 10D2     		bcs	.L3
  18:.\main.c      ****             CY_SET_REG16(CY_DMA_TDMEM_STRUCT_PTR[dma_td].TD1,
  72              		.loc 1 18 0
  73 0028 1C4B     		ldr	r3, .L5
  74 002a 1B78     		ldrb	r3, [r3]	@ zero_extendqisi2
  75 002c DB00     		lsls	r3, r3, #3
  76 002e 03F18043 		add	r3, r3, #1073741824
  77 0032 03F5F043 		add	r3, r3, #30720
  78 0036 0433     		adds	r3, r3, #4
  79 0038 FA88     		ldrh	r2, [r7, #6]
  80 003a D208     		lsrs	r2, r2, #3
  81 003c 92B2     		uxth	r2, r2
  82 003e D201     		lsls	r2, r2, #7
  83 0040 1749     		ldr	r1, .L5+4
  84 0042 0A44     		add	r2, r2, r1
  85 0044 92B2     		uxth	r2, r2
  86 0046 1A80     		strh	r2, [r3]	@ movhi
  87 0048 24E0     		b	.L1
  88              	.L3:
  19:.\main.c      ****                          LO16((uint32) vbuf[line / 8]));
  20:.\main.c      ****         } else if (line == 768 && flag) {  // refresh the buffer during vsync
  89              		.loc 1 20 0
  90 004a FB88     		ldrh	r3, [r7, #6]
ARM GAS  C:\Users\ologa\AppData\Local\Temp\cciH0f3t.s 			page 3


  91 004c B3F5407F 		cmp	r3, #768
  92 0050 20D1     		bne	.L1
  93              		.loc 1 20 0 is_stmt 0 discriminator 1
  94 0052 144B     		ldr	r3, .L5+8
  95 0054 1B68     		ldr	r3, [r3]
  96 0056 002B     		cmp	r3, #0
  97 0058 1CD0     		beq	.L1
  21:.\main.c      ****             CyDmaChDisable(dma_chan);
  98              		.loc 1 21 0 is_stmt 1
  99 005a 134B     		ldr	r3, .L5+12
 100 005c 1B78     		ldrb	r3, [r3]	@ zero_extendqisi2
 101 005e 1846     		mov	r0, r3
 102 0060 FFF7FEFF 		bl	CyDmaChDisable
  22:.\main.c      ****             if (flag) {
 103              		.loc 1 22 0
 104 0064 0F4B     		ldr	r3, .L5+8
 105 0066 1B68     		ldr	r3, [r3]
 106 0068 002B     		cmp	r3, #0
 107 006a 0DD0     		beq	.L4
  23:.\main.c      ****                 memcpy(*vbuf, *buf, 96 * 128);
 108              		.loc 1 23 0
 109 006c 0C4A     		ldr	r2, .L5+4
 110 006e 0F4B     		ldr	r3, .L5+16
 111 0070 1146     		mov	r1, r2
 112 0072 1A46     		mov	r2, r3
 113 0074 4FF44053 		mov	r3, #12288
 114 0078 0846     		mov	r0, r1
 115 007a 1146     		mov	r1, r2
 116 007c 1A46     		mov	r2, r3
 117 007e FFF7FEFF 		bl	memcpy
  24:.\main.c      ****                 flag = 0;
 118              		.loc 1 24 0
 119 0082 084B     		ldr	r3, .L5+8
 120 0084 0022     		movs	r2, #0
 121 0086 1A60     		str	r2, [r3]
 122              	.L4:
  25:.\main.c      ****             }
  26:.\main.c      ****             CyDmaChEnable(dma_chan, 1);
 123              		.loc 1 26 0
 124 0088 074B     		ldr	r3, .L5+12
 125 008a 1B78     		ldrb	r3, [r3]	@ zero_extendqisi2
 126 008c 1846     		mov	r0, r3
 127 008e 0121     		movs	r1, #1
 128 0090 FFF7FEFF 		bl	CyDmaChEnable
 129              	.L1:
  27:.\main.c      ****         }
  28:.\main.c      ****     }
  29:.\main.c      **** }
 130              		.loc 1 29 0
 131 0094 0837     		adds	r7, r7, #8
 132              		.cfi_def_cfa_offset 8
 133 0096 BD46     		mov	sp, r7
 134              		.cfi_def_cfa_register 13
 135              		@ sp needed
 136 0098 80BD     		pop	{r7, pc}
 137              	.L6:
 138 009a 00BF     		.align	2
ARM GAS  C:\Users\ologa\AppData\Local\Temp\cciH0f3t.s 			page 4


 139              	.L5:
 140 009c 00000000 		.word	dma_td
 141 00a0 00000000 		.word	vbuf
 142 00a4 00000000 		.word	flag
 143 00a8 00000000 		.word	dma_chan
 144 00ac 00000000 		.word	buf
 145              		.cfi_endproc
 146              	.LFE56:
 147              		.size	newline, .-newline
 148              		.section	.text.update,"ax",%progbits
 149              		.align	2
 150              		.global	update
 151              		.thumb
 152              		.thumb_func
 153              		.type	update, %function
 154              	update:
 155              	.LFB57:
  30:.\main.c      **** inline void update() {
 156              		.loc 1 30 0
 157              		.cfi_startproc
 158              		@ args = 0, pretend = 0, frame = 0
 159              		@ frame_needed = 1, uses_anonymous_args = 0
 160              		@ link register save eliminated.
 161 0000 80B4     		push	{r7}
 162              		.cfi_def_cfa_offset 4
 163              		.cfi_offset 7, -4
 164 0002 00AF     		add	r7, sp, #0
 165              		.cfi_def_cfa_register 7
  31:.\main.c      ****     flag = 1;
 166              		.loc 1 31 0
 167 0004 054B     		ldr	r3, .L9
 168 0006 0122     		movs	r2, #1
 169 0008 1A60     		str	r2, [r3]
  32:.\main.c      ****     while (flag);
 170              		.loc 1 32 0
 171 000a 00BF     		nop
 172              	.L8:
 173              		.loc 1 32 0 is_stmt 0 discriminator 1
 174 000c 034B     		ldr	r3, .L9
 175 000e 1B68     		ldr	r3, [r3]
 176 0010 002B     		cmp	r3, #0
 177 0012 FBD1     		bne	.L8
  33:.\main.c      **** }
 178              		.loc 1 33 0 is_stmt 1
 179 0014 BD46     		mov	sp, r7
 180              		.cfi_def_cfa_register 13
 181              		@ sp needed
 182 0016 5DF8047B 		ldr	r7, [sp], #4
 183              		.cfi_restore 7
 184              		.cfi_def_cfa_offset 0
 185 001a 7047     		bx	lr
 186              	.L10:
 187              		.align	2
 188              	.L9:
 189 001c 00000000 		.word	flag
 190              		.cfi_endproc
 191              	.LFE57:
ARM GAS  C:\Users\ologa\AppData\Local\Temp\cciH0f3t.s 			page 5


 192              		.size	update, .-update
 193              		.section	.text.main,"ax",%progbits
 194              		.align	2
 195              		.global	main
 196              		.thumb
 197              		.thumb_func
 198              		.type	main, %function
 199              	main:
 200              	.LFB58:
  34:.\main.c      **** 
  35:.\main.c      **** void main() {
 201              		.loc 1 35 0
 202              		.cfi_startproc
 203              		@ args = 0, pretend = 0, frame = 8
 204              		@ frame_needed = 1, uses_anonymous_args = 0
 205 0000 80B5     		push	{r7, lr}
 206              		.cfi_def_cfa_offset 8
 207              		.cfi_offset 7, -8
 208              		.cfi_offset 14, -4
 209 0002 82B0     		sub	sp, sp, #8
 210              		.cfi_def_cfa_offset 16
 211 0004 00AF     		add	r7, sp, #0
 212              		.cfi_def_cfa_register 7
  36:.\main.c      ****     // Initialize the DMA.
  37:.\main.c      ****     dma_td = CyDmaTdAllocate();
 213              		.loc 1 37 0
 214 0006 FFF7FEFF 		bl	CyDmaTdAllocate
 215 000a 0346     		mov	r3, r0
 216 000c 1A46     		mov	r2, r3
 217 000e 2D4B     		ldr	r3, .L14
 218 0010 1A70     		strb	r2, [r3]
  38:.\main.c      ****     dma_chan = DMA_DmaInitialize(1, 0, HI16(CYDEV_SRAM_BASE), HI16(CYDEV_PERIPH_BASE));
 219              		.loc 1 38 0
 220 0012 0120     		movs	r0, #1
 221 0014 0021     		movs	r1, #0
 222 0016 41F6FF72 		movw	r2, #8191
 223 001a 4FF48043 		mov	r3, #16384
 224 001e FFF7FEFF 		bl	DMA_DmaInitialize
 225 0022 0346     		mov	r3, r0
 226 0024 1A46     		mov	r2, r3
 227 0026 284B     		ldr	r3, .L14+4
 228 0028 1A70     		strb	r2, [r3]
  39:.\main.c      ****     CyDmaTdSetConfiguration(dma_td, 128, dma_td, DMA__TD_TERMOUT_EN | TD_INC_SRC_ADR);
 229              		.loc 1 39 0
 230 002a 264B     		ldr	r3, .L14
 231 002c 1A78     		ldrb	r2, [r3]	@ zero_extendqisi2
 232 002e 254B     		ldr	r3, .L14
 233 0030 1B78     		ldrb	r3, [r3]	@ zero_extendqisi2
 234 0032 1046     		mov	r0, r2
 235 0034 8021     		movs	r1, #128
 236 0036 1A46     		mov	r2, r3
 237 0038 0523     		movs	r3, #5
 238 003a FFF7FEFF 		bl	CyDmaTdSetConfiguration
  40:.\main.c      ****     CyDmaTdSetAddress(dma_td, 0, LO16((uint32) PIXEL_Control_PTR));
 239              		.loc 1 40 0
 240 003e 214B     		ldr	r3, .L14
 241 0040 1B78     		ldrb	r3, [r3]	@ zero_extendqisi2
ARM GAS  C:\Users\ologa\AppData\Local\Temp\cciH0f3t.s 			page 6


 242 0042 1846     		mov	r0, r3
 243 0044 0021     		movs	r1, #0
 244 0046 46F27952 		movw	r2, #25977
 245 004a FFF7FEFF 		bl	CyDmaTdSetAddress
  41:.\main.c      ****     CyDmaChSetInitialTd(dma_chan, dma_td);
 246              		.loc 1 41 0
 247 004e 1E4B     		ldr	r3, .L14+4
 248 0050 1A78     		ldrb	r2, [r3]	@ zero_extendqisi2
 249 0052 1C4B     		ldr	r3, .L14
 250 0054 1B78     		ldrb	r3, [r3]	@ zero_extendqisi2
 251 0056 1046     		mov	r0, r2
 252 0058 1946     		mov	r1, r3
 253 005a FFF7FEFF 		bl	CyDmaChSetInitialTd
  42:.\main.c      ****     CyDmaChEnable(dma_chan, 1);
 254              		.loc 1 42 0
 255 005e 1A4B     		ldr	r3, .L14+4
 256 0060 1B78     		ldrb	r3, [r3]	@ zero_extendqisi2
 257 0062 1846     		mov	r0, r3
 258 0064 0121     		movs	r1, #1
 259 0066 FFF7FEFF 		bl	CyDmaChEnable
  43:.\main.c      ****     
  44:.\main.c      ****     // Start all of the timing counters and the UART.
  45:.\main.c      ****     HORIZ_Start();
 260              		.loc 1 45 0
 261 006a FFF7FEFF 		bl	HORIZ_Start
  46:.\main.c      ****     VERT_Start();
 262              		.loc 1 46 0
 263 006e FFF7FEFF 		bl	VERT_Start
  47:.\main.c      ****     HSYNC_Start();
 264              		.loc 1 47 0
 265 0072 FFF7FEFF 		bl	HSYNC_Start
  48:.\main.c      ****     VSYNC_Start();
 266              		.loc 1 48 0
 267 0076 FFF7FEFF 		bl	VSYNC_Start
  49:.\main.c      ****     NEWLINE_StartEx(newline);
 268              		.loc 1 49 0
 269 007a 1448     		ldr	r0, .L14+8
 270 007c FFF7FEFF 		bl	NEWLINE_StartEx
  50:.\main.c      ****     UART_Start();
 271              		.loc 1 50 0
 272 0080 FFF7FEFF 		bl	UART_Start
  51:.\main.c      ****     CyGlobalIntEnable;
 273              		.loc 1 51 0
 274              	@ 51 ".\main.c" 1
 275 0084 62B6     		CPSIE   i
 276              	@ 0 "" 2
  52:.\main.c      ****     
  53:.\main.c      ****     //BASIC OUTPUT OF ORANGE COLOR ON SCREEN
  54:.\main.c      ****         int x = 0, y = 0;
 277              		.loc 1 54 0
 278              		.thumb
 279 0086 0023     		movs	r3, #0
 280 0088 7B60     		str	r3, [r7, #4]
 281 008a 0023     		movs	r3, #0
 282 008c 3B60     		str	r3, [r7]
 283              	.L13:
  55:.\main.c      ****     for(;;) {
ARM GAS  C:\Users\ologa\AppData\Local\Temp\cciH0f3t.s 			page 7


  56:.\main.c      ****         buf[y][x] = 0x07; // set the RGB value at x, y pixel in buffer
 284              		.loc 1 56 0
 285 008e 1049     		ldr	r1, .L14+12
 286 0090 3B68     		ldr	r3, [r7]
 287 0092 DA01     		lsls	r2, r3, #7
 288 0094 7B68     		ldr	r3, [r7, #4]
 289 0096 1344     		add	r3, r3, r2
 290 0098 0B44     		add	r3, r3, r1
 291 009a 0722     		movs	r2, #7
 292 009c 1A70     		strb	r2, [r3]
  57:.\main.c      ****         x += 1;
 293              		.loc 1 57 0
 294 009e 7B68     		ldr	r3, [r7, #4]
 295 00a0 0133     		adds	r3, r3, #1
 296 00a2 7B60     		str	r3, [r7, #4]
  58:.\main.c      ****         if (x == 128){
 297              		.loc 1 58 0
 298 00a4 7B68     		ldr	r3, [r7, #4]
 299 00a6 802B     		cmp	r3, #128
 300 00a8 0BD1     		bne	.L12
  59:.\main.c      ****             x = 0;
 301              		.loc 1 59 0
 302 00aa 0023     		movs	r3, #0
 303 00ac 7B60     		str	r3, [r7, #4]
  60:.\main.c      ****             y += 1;
 304              		.loc 1 60 0
 305 00ae 3B68     		ldr	r3, [r7]
 306 00b0 0133     		adds	r3, r3, #1
 307 00b2 3B60     		str	r3, [r7]
  61:.\main.c      ****             if (y == 96){
 308              		.loc 1 61 0
 309 00b4 3B68     		ldr	r3, [r7]
 310 00b6 602B     		cmp	r3, #96
 311 00b8 03D1     		bne	.L12
  62:.\main.c      ****                 y = 0;
 312              		.loc 1 62 0
 313 00ba 0023     		movs	r3, #0
 314 00bc 3B60     		str	r3, [r7]
  63:.\main.c      ****                 update();
 315              		.loc 1 63 0
 316 00be FFF7FEFF 		bl	update
 317              	.L12:
  64:.\main.c      ****             }
  65:.\main.c      ****         }
  66:.\main.c      ****     }
 318              		.loc 1 66 0
 319 00c2 E4E7     		b	.L13
 320              	.L15:
 321              		.align	2
 322              	.L14:
 323 00c4 00000000 		.word	dma_td
 324 00c8 00000000 		.word	dma_chan
 325 00cc 00000000 		.word	newline
 326 00d0 00000000 		.word	buf
 327              		.cfi_endproc
 328              	.LFE58:
 329              		.size	main, .-main
ARM GAS  C:\Users\ologa\AppData\Local\Temp\cciH0f3t.s 			page 8


 330              		.text
 331              	.Letext0:
 332              		.file 2 "c:\\program files (x86)\\cypress\\psoc creator\\3.3\\psoc creator\\import\\gnu\\arm\\4.9.
 333              		.file 3 "c:\\program files (x86)\\cypress\\psoc creator\\3.3\\psoc creator\\import\\gnu\\arm\\4.9.
 334              		.file 4 "Generated_Source\\PSoC5/cytypes.h"
 335              		.file 5 "Generated_Source\\PSoC5/CYDMAC.H"
 336              		.file 6 "Generated_Source\\PSoC5/core_cm3.h"