ARM GAS  C:\Users\ologa\AppData\Local\Temp\ccChgFj1.s 			page 1


   1              		.syntax unified
   2              		.cpu cortex-m3
   3              		.fpu softvfp
   4              		.eabi_attribute 20, 1
   5              		.eabi_attribute 21, 1
   6              		.eabi_attribute 23, 3
   7              		.eabi_attribute 24, 1
   8              		.eabi_attribute 25, 1
   9              		.eabi_attribute 26, 1
  10              		.eabi_attribute 30, 6
  11              		.eabi_attribute 34, 1
  12              		.eabi_attribute 18, 4
  13              		.thumb
  14              		.file	"main.c"
  15              		.text
  16              	.Ltext0:
  17              		.cfi_sections	.debug_frame
  18              		.section	.text.main,"ax",%progbits
  19              		.align	2
  20              		.global	main
  21              		.thumb
  22              		.thumb_func
  23              		.type	main, %function
  24              	main:
  25              	.LFB63:
  26              		.file 1 ".\\main.c"
   1:.\main.c      **** /* ========================================
   2:.\main.c      ****  *
   3:.\main.c      ****  * 6.115 Demo Program
   4:.\main.c      ****  * All Rights Reserved
   5:.\main.c      ****  * North and Steven Leeb, 2013
   6:.\main.c      ****  *
   7:.\main.c      ****  * CONFIDENTIAL AND PROPRIETARY INFORMATION
   8:.\main.c      ****  * WHICH IS THE PROPERTY OF your company.
   9:.\main.c      ****  *
  10:.\main.c      ****  * ========================================
  11:.\main.c      **** */
  12:.\main.c      **** #include <device.h>
  13:.\main.c      **** void DigitLED_Write( int);
  14:.\main.c      **** void DigitLED_WriteHex( int);
  15:.\main.c      **** 
  16:.\main.c      **** void main()
  17:.\main.c      **** {
  27              		.loc 1 17 0
  28              		.cfi_startproc
  29              		@ args = 0, pretend = 0, frame = 0
  30              		@ frame_needed = 1, uses_anonymous_args = 0
  31 0000 80B5     		push	{r7, lr}
  32              		.cfi_def_cfa_offset 8
  33              		.cfi_offset 7, -8
  34              		.cfi_offset 14, -4
  35 0002 00AF     		add	r7, sp, #0
  36              		.cfi_def_cfa_register 7
  37              	.L2:
  18:.\main.c      **** 
  19:.\main.c      ****     while(1)
  20:.\main.c      ****     {
ARM GAS  C:\Users\ologa\AppData\Local\Temp\ccChgFj1.s 			page 2


  21:.\main.c      ****         DigitLED_WriteHex(0x06);    // 6
  38              		.loc 1 21 0 discriminator 1
  39 0004 0620     		movs	r0, #6
  40 0006 FFF7FEFF 		bl	DigitLED_WriteHex
  22:.\main.c      ****         CyDelay(500);
  41              		.loc 1 22 0 discriminator 1
  42 000a 4FF4FA70 		mov	r0, #500
  43 000e FFF7FEFF 		bl	CyDelay
  23:.\main.c      ****         DigitLED_WriteHex(0xff);    // null
  44              		.loc 1 23 0 discriminator 1
  45 0012 FF20     		movs	r0, #255
  46 0014 FFF7FEFF 		bl	DigitLED_WriteHex
  24:.\main.c      ****         CyDelay(100);
  47              		.loc 1 24 0 discriminator 1
  48 0018 6420     		movs	r0, #100
  49 001a FFF7FEFF 		bl	CyDelay
  25:.\main.c      ****         DigitLED_WriteHex(0x10);    // .
  50              		.loc 1 25 0 discriminator 1
  51 001e 1020     		movs	r0, #16
  52 0020 FFF7FEFF 		bl	DigitLED_WriteHex
  26:.\main.c      ****         CyDelay(500);
  53              		.loc 1 26 0 discriminator 1
  54 0024 4FF4FA70 		mov	r0, #500
  55 0028 FFF7FEFF 		bl	CyDelay
  27:.\main.c      ****         DigitLED_WriteHex(0xff);    // null
  56              		.loc 1 27 0 discriminator 1
  57 002c FF20     		movs	r0, #255
  58 002e FFF7FEFF 		bl	DigitLED_WriteHex
  28:.\main.c      ****         CyDelay(100);
  59              		.loc 1 28 0 discriminator 1
  60 0032 6420     		movs	r0, #100
  61 0034 FFF7FEFF 		bl	CyDelay
  29:.\main.c      ****         DigitLED_WriteHex(0x01);    // 1
  62              		.loc 1 29 0 discriminator 1
  63 0038 0120     		movs	r0, #1
  64 003a FFF7FEFF 		bl	DigitLED_WriteHex
  30:.\main.c      ****         CyDelay(500);
  65              		.loc 1 30 0 discriminator 1
  66 003e 4FF4FA70 		mov	r0, #500
  67 0042 FFF7FEFF 		bl	CyDelay
  31:.\main.c      ****         DigitLED_WriteHex(0xff);    // null
  68              		.loc 1 31 0 discriminator 1
  69 0046 FF20     		movs	r0, #255
  70 0048 FFF7FEFF 		bl	DigitLED_WriteHex
  32:.\main.c      ****         CyDelay(100);
  71              		.loc 1 32 0 discriminator 1
  72 004c 6420     		movs	r0, #100
  73 004e FFF7FEFF 		bl	CyDelay
  33:.\main.c      ****         DigitLED_WriteHex(0x01);    // 1
  74              		.loc 1 33 0 discriminator 1
  75 0052 0120     		movs	r0, #1
  76 0054 FFF7FEFF 		bl	DigitLED_WriteHex
  34:.\main.c      ****         CyDelay(500);
  77              		.loc 1 34 0 discriminator 1
  78 0058 4FF4FA70 		mov	r0, #500
  79 005c FFF7FEFF 		bl	CyDelay
  35:.\main.c      ****         DigitLED_WriteHex(0xff);    // null
ARM GAS  C:\Users\ologa\AppData\Local\Temp\ccChgFj1.s 			page 3


  80              		.loc 1 35 0 discriminator 1
  81 0060 FF20     		movs	r0, #255
  82 0062 FFF7FEFF 		bl	DigitLED_WriteHex
  36:.\main.c      ****         CyDelay(100);
  83              		.loc 1 36 0 discriminator 1
  84 0066 6420     		movs	r0, #100
  85 0068 FFF7FEFF 		bl	CyDelay
  37:.\main.c      ****         DigitLED_WriteHex(0x05);    // 5
  86              		.loc 1 37 0 discriminator 1
  87 006c 0520     		movs	r0, #5
  88 006e FFF7FEFF 		bl	DigitLED_WriteHex
  38:.\main.c      ****         CyDelay(500);
  89              		.loc 1 38 0 discriminator 1
  90 0072 4FF4FA70 		mov	r0, #500
  91 0076 FFF7FEFF 		bl	CyDelay
  39:.\main.c      ****         DigitLED_WriteHex(0xff);    // null
  92              		.loc 1 39 0 discriminator 1
  93 007a FF20     		movs	r0, #255
  94 007c FFF7FEFF 		bl	DigitLED_WriteHex
  40:.\main.c      ****         CyDelay(100);
  95              		.loc 1 40 0 discriminator 1
  96 0080 6420     		movs	r0, #100
  97 0082 FFF7FEFF 		bl	CyDelay
  41:.\main.c      ****         DigitLED_WriteHex(0xff);    // null
  98              		.loc 1 41 0 discriminator 1
  99 0086 FF20     		movs	r0, #255
 100 0088 FFF7FEFF 		bl	DigitLED_WriteHex
  42:.\main.c      ****         CyDelay(500);
 101              		.loc 1 42 0 discriminator 1
 102 008c 4FF4FA70 		mov	r0, #500
 103 0090 FFF7FEFF 		bl	CyDelay
  43:.\main.c      ****         DigitLED_WriteHex(0xff);    // null
 104              		.loc 1 43 0 discriminator 1
 105 0094 FF20     		movs	r0, #255
 106 0096 FFF7FEFF 		bl	DigitLED_WriteHex
  44:.\main.c      ****         CyDelay(100);
 107              		.loc 1 44 0 discriminator 1
 108 009a 6420     		movs	r0, #100
 109 009c FFF7FEFF 		bl	CyDelay
  45:.\main.c      ****         DigitLED_WriteHex(0x01);    // I
 110              		.loc 1 45 0 discriminator 1
 111 00a0 0120     		movs	r0, #1
 112 00a2 FFF7FEFF 		bl	DigitLED_WriteHex
  46:.\main.c      ****         CyDelay(500);
 113              		.loc 1 46 0 discriminator 1
 114 00a6 4FF4FA70 		mov	r0, #500
 115 00aa FFF7FEFF 		bl	CyDelay
  47:.\main.c      ****         DigitLED_WriteHex(0xff);    // null
 116              		.loc 1 47 0 discriminator 1
 117 00ae FF20     		movs	r0, #255
 118 00b0 FFF7FEFF 		bl	DigitLED_WriteHex
  48:.\main.c      ****         CyDelay(100);
 119              		.loc 1 48 0 discriminator 1
 120 00b4 6420     		movs	r0, #100
 121 00b6 FFF7FEFF 		bl	CyDelay
  49:.\main.c      ****         DigitLED_WriteHex(0x05);    // S
 122              		.loc 1 49 0 discriminator 1
ARM GAS  C:\Users\ologa\AppData\Local\Temp\ccChgFj1.s 			page 4


 123 00ba 0520     		movs	r0, #5
 124 00bc FFF7FEFF 		bl	DigitLED_WriteHex
  50:.\main.c      ****         CyDelay(500);
 125              		.loc 1 50 0 discriminator 1
 126 00c0 4FF4FA70 		mov	r0, #500
 127 00c4 FFF7FEFF 		bl	CyDelay
  51:.\main.c      ****         DigitLED_WriteHex(0xff);    // null
 128              		.loc 1 51 0 discriminator 1
 129 00c8 FF20     		movs	r0, #255
 130 00ca FFF7FEFF 		bl	DigitLED_WriteHex
  52:.\main.c      ****         CyDelay(100);
 131              		.loc 1 52 0 discriminator 1
 132 00ce 6420     		movs	r0, #100
 133 00d0 FFF7FEFF 		bl	CyDelay
  53:.\main.c      ****         DigitLED_WriteHex(0xff);    // null
 134              		.loc 1 53 0 discriminator 1
 135 00d4 FF20     		movs	r0, #255
 136 00d6 FFF7FEFF 		bl	DigitLED_WriteHex
  54:.\main.c      ****         CyDelay(500);
 137              		.loc 1 54 0 discriminator 1
 138 00da 4FF4FA70 		mov	r0, #500
 139 00de FFF7FEFF 		bl	CyDelay
  55:.\main.c      ****         DigitLED_WriteHex(0xff);    // null
 140              		.loc 1 55 0 discriminator 1
 141 00e2 FF20     		movs	r0, #255
 142 00e4 FFF7FEFF 		bl	DigitLED_WriteHex
  56:.\main.c      ****         CyDelay(100);
 143              		.loc 1 56 0 discriminator 1
 144 00e8 6420     		movs	r0, #100
 145 00ea FFF7FEFF 		bl	CyDelay
  57:.\main.c      ****         DigitLED_Write(0b01100011); // C
 146              		.loc 1 57 0 discriminator 1
 147 00ee 6320     		movs	r0, #99
 148 00f0 FFF7FEFF 		bl	DigitLED_Write
  58:.\main.c      ****         CyDelay(500);
 149              		.loc 1 58 0 discriminator 1
 150 00f4 4FF4FA70 		mov	r0, #500
 151 00f8 FFF7FEFF 		bl	CyDelay
  59:.\main.c      ****         DigitLED_WriteHex(0xff);    // null
 152              		.loc 1 59 0 discriminator 1
 153 00fc FF20     		movs	r0, #255
 154 00fe FFF7FEFF 		bl	DigitLED_WriteHex
  60:.\main.c      ****         CyDelay(100);
 155              		.loc 1 60 0 discriminator 1
 156 0102 6420     		movs	r0, #100
 157 0104 FFF7FEFF 		bl	CyDelay
  61:.\main.c      ****         DigitLED_WriteHex(0x00);    // O
 158              		.loc 1 61 0 discriminator 1
 159 0108 0020     		movs	r0, #0
 160 010a FFF7FEFF 		bl	DigitLED_WriteHex
  62:.\main.c      ****         CyDelay(500);
 161              		.loc 1 62 0 discriminator 1
 162 010e 4FF4FA70 		mov	r0, #500
 163 0112 FFF7FEFF 		bl	CyDelay
  63:.\main.c      ****         DigitLED_WriteHex(0xff);    // null
 164              		.loc 1 63 0 discriminator 1
 165 0116 FF20     		movs	r0, #255
ARM GAS  C:\Users\ologa\AppData\Local\Temp\ccChgFj1.s 			page 5


 166 0118 FFF7FEFF 		bl	DigitLED_WriteHex
  64:.\main.c      ****         CyDelay(100);
 167              		.loc 1 64 0 discriminator 1
 168 011c 6420     		movs	r0, #100
 169 011e FFF7FEFF 		bl	CyDelay
  65:.\main.c      ****         DigitLED_WriteHex(0x00);    // O
 170              		.loc 1 65 0 discriminator 1
 171 0122 0020     		movs	r0, #0
 172 0124 FFF7FEFF 		bl	DigitLED_WriteHex
  66:.\main.c      ****         CyDelay(500);
 173              		.loc 1 66 0 discriminator 1
 174 0128 4FF4FA70 		mov	r0, #500
 175 012c FFF7FEFF 		bl	CyDelay
  67:.\main.c      ****         DigitLED_WriteHex(0xff);    // null
 176              		.loc 1 67 0 discriminator 1
 177 0130 FF20     		movs	r0, #255
 178 0132 FFF7FEFF 		bl	DigitLED_WriteHex
  68:.\main.c      ****         CyDelay(100);
 179              		.loc 1 68 0 discriminator 1
 180 0136 6420     		movs	r0, #100
 181 0138 FFF7FEFF 		bl	CyDelay
  69:.\main.c      ****         DigitLED_Write(0b11100011); // L
 182              		.loc 1 69 0 discriminator 1
 183 013c E320     		movs	r0, #227
 184 013e FFF7FEFF 		bl	DigitLED_Write
  70:.\main.c      ****         CyDelay(500);
 185              		.loc 1 70 0 discriminator 1
 186 0142 4FF4FA70 		mov	r0, #500
 187 0146 FFF7FEFF 		bl	CyDelay
  71:.\main.c      ****         DigitLED_WriteHex(0xff);    // null
 188              		.loc 1 71 0 discriminator 1
 189 014a FF20     		movs	r0, #255
 190 014c FFF7FEFF 		bl	DigitLED_WriteHex
  72:.\main.c      ****         CyDelay(500);
 191              		.loc 1 72 0 discriminator 1
 192 0150 4FF4FA70 		mov	r0, #500
 193 0154 FFF7FEFF 		bl	CyDelay
  73:.\main.c      ****     }
 194              		.loc 1 73 0 discriminator 1
 195 0158 54E7     		b	.L2
 196              		.cfi_endproc
 197              	.LFE63:
 198              		.size	main, .-main
 199 015a 00BF     		.section	.text.DigitLED_Write,"ax",%progbits
 200              		.align	2
 201              		.global	DigitLED_Write
 202              		.thumb
 203              		.thumb_func
 204              		.type	DigitLED_Write, %function
 205              	DigitLED_Write:
 206              	.LFB64:
  74:.\main.c      **** }
  75:.\main.c      **** 
  76:.\main.c      **** // DigitLED_Write will write the binary number "bi" to turn on/off each segment
  77:.\main.c      **** // of the digit LED. The binary number correspond to 0b000000000 => 0bABCDEGFP
  78:.\main.c      **** // Make each bit "0" to turn each segment "on"
  79:.\main.c      **** 
ARM GAS  C:\Users\ologa\AppData\Local\Temp\ccChgFj1.s 			page 6


  80:.\main.c      **** void DigitLED_Write( int bi)
  81:.\main.c      **** {
 207              		.loc 1 81 0
 208              		.cfi_startproc
 209              		@ args = 0, pretend = 0, frame = 8
 210              		@ frame_needed = 1, uses_anonymous_args = 0
 211 0000 80B5     		push	{r7, lr}
 212              		.cfi_def_cfa_offset 8
 213              		.cfi_offset 7, -8
 214              		.cfi_offset 14, -4
 215 0002 82B0     		sub	sp, sp, #8
 216              		.cfi_def_cfa_offset 16
 217 0004 00AF     		add	r7, sp, #0
 218              		.cfi_def_cfa_register 7
 219 0006 7860     		str	r0, [r7, #4]
  82:.\main.c      ****     A_Write((bi >> 7) & 1);
 220              		.loc 1 82 0
 221 0008 7B68     		ldr	r3, [r7, #4]
 222 000a DB11     		asrs	r3, r3, #7
 223 000c DBB2     		uxtb	r3, r3
 224 000e 03F00103 		and	r3, r3, #1
 225 0012 DBB2     		uxtb	r3, r3
 226 0014 1846     		mov	r0, r3
 227 0016 FFF7FEFF 		bl	A_Write
  83:.\main.c      ****     B_Write((bi >> 6) & 1);
 228              		.loc 1 83 0
 229 001a 7B68     		ldr	r3, [r7, #4]
 230 001c 9B11     		asrs	r3, r3, #6
 231 001e DBB2     		uxtb	r3, r3
 232 0020 03F00103 		and	r3, r3, #1
 233 0024 DBB2     		uxtb	r3, r3
 234 0026 1846     		mov	r0, r3
 235 0028 FFF7FEFF 		bl	B_Write
  84:.\main.c      ****     C_Write((bi >> 5) & 1);
 236              		.loc 1 84 0
 237 002c 7B68     		ldr	r3, [r7, #4]
 238 002e 5B11     		asrs	r3, r3, #5
 239 0030 DBB2     		uxtb	r3, r3
 240 0032 03F00103 		and	r3, r3, #1
 241 0036 DBB2     		uxtb	r3, r3
 242 0038 1846     		mov	r0, r3
 243 003a FFF7FEFF 		bl	C_Write
  85:.\main.c      ****     D_Write((bi >> 4) & 1);
 244              		.loc 1 85 0
 245 003e 7B68     		ldr	r3, [r7, #4]
 246 0040 1B11     		asrs	r3, r3, #4
 247 0042 DBB2     		uxtb	r3, r3
 248 0044 03F00103 		and	r3, r3, #1
 249 0048 DBB2     		uxtb	r3, r3
 250 004a 1846     		mov	r0, r3
 251 004c FFF7FEFF 		bl	D_Write
  86:.\main.c      ****     E_Write((bi >> 3) & 1);
 252              		.loc 1 86 0
 253 0050 7B68     		ldr	r3, [r7, #4]
 254 0052 DB10     		asrs	r3, r3, #3
 255 0054 DBB2     		uxtb	r3, r3
 256 0056 03F00103 		and	r3, r3, #1
ARM GAS  C:\Users\ologa\AppData\Local\Temp\ccChgFj1.s 			page 7


 257 005a DBB2     		uxtb	r3, r3
 258 005c 1846     		mov	r0, r3
 259 005e FFF7FEFF 		bl	E_Write
  87:.\main.c      ****     F_Write((bi >> 2) & 1);
 260              		.loc 1 87 0
 261 0062 7B68     		ldr	r3, [r7, #4]
 262 0064 9B10     		asrs	r3, r3, #2
 263 0066 DBB2     		uxtb	r3, r3
 264 0068 03F00103 		and	r3, r3, #1
 265 006c DBB2     		uxtb	r3, r3
 266 006e 1846     		mov	r0, r3
 267 0070 FFF7FEFF 		bl	F_Write
  88:.\main.c      ****     G_Write((bi >> 1) & 1);
 268              		.loc 1 88 0
 269 0074 7B68     		ldr	r3, [r7, #4]
 270 0076 5B10     		asrs	r3, r3, #1
 271 0078 DBB2     		uxtb	r3, r3
 272 007a 03F00103 		and	r3, r3, #1
 273 007e DBB2     		uxtb	r3, r3
 274 0080 1846     		mov	r0, r3
 275 0082 FFF7FEFF 		bl	G_Write
  89:.\main.c      ****     P_Write((bi >> 0) & 1);
 276              		.loc 1 89 0
 277 0086 7B68     		ldr	r3, [r7, #4]
 278 0088 DBB2     		uxtb	r3, r3
 279 008a 03F00103 		and	r3, r3, #1
 280 008e DBB2     		uxtb	r3, r3
 281 0090 1846     		mov	r0, r3
 282 0092 FFF7FEFF 		bl	P_Write
  90:.\main.c      **** }
 283              		.loc 1 90 0
 284 0096 0837     		adds	r7, r7, #8
 285              		.cfi_def_cfa_offset 8
 286 0098 BD46     		mov	sp, r7
 287              		.cfi_def_cfa_register 13
 288              		@ sp needed
 289 009a 80BD     		pop	{r7, pc}
 290              		.cfi_endproc
 291              	.LFE64:
 292              		.size	DigitLED_Write, .-DigitLED_Write
 293              		.section	.text.DigitLED_WriteHex,"ax",%progbits
 294              		.align	2
 295              		.global	DigitLED_WriteHex
 296              		.thumb
 297              		.thumb_func
 298              		.type	DigitLED_WriteHex, %function
 299              	DigitLED_WriteHex:
 300              	.LFB65:
  91:.\main.c      **** 
  92:.\main.c      **** // DigitLED_WriteHex will write the hexadicimal number "hex" to the LED screen
  93:.\main.c      **** void DigitLED_WriteHex( int hex)
  94:.\main.c      **** {
 301              		.loc 1 94 0
 302              		.cfi_startproc
 303              		@ args = 0, pretend = 0, frame = 8
 304              		@ frame_needed = 1, uses_anonymous_args = 0
 305 0000 80B5     		push	{r7, lr}
ARM GAS  C:\Users\ologa\AppData\Local\Temp\ccChgFj1.s 			page 8


 306              		.cfi_def_cfa_offset 8
 307              		.cfi_offset 7, -8
 308              		.cfi_offset 14, -4
 309 0002 82B0     		sub	sp, sp, #8
 310              		.cfi_def_cfa_offset 16
 311 0004 00AF     		add	r7, sp, #0
 312              		.cfi_def_cfa_register 7
 313 0006 7860     		str	r0, [r7, #4]
  95:.\main.c      ****     if (hex == 0x00)
 314              		.loc 1 95 0
 315 0008 7B68     		ldr	r3, [r7, #4]
 316 000a 002B     		cmp	r3, #0
 317 000c 03D1     		bne	.L5
  96:.\main.c      ****         DigitLED_Write(0b00000011);
 318              		.loc 1 96 0
 319 000e 0320     		movs	r0, #3
 320 0010 FFF7FEFF 		bl	DigitLED_Write
 321 0014 72E0     		b	.L4
 322              	.L5:
  97:.\main.c      ****     else if (hex == 0x01)
 323              		.loc 1 97 0
 324 0016 7B68     		ldr	r3, [r7, #4]
 325 0018 012B     		cmp	r3, #1
 326 001a 03D1     		bne	.L7
  98:.\main.c      ****         DigitLED_Write(0b10011111);
 327              		.loc 1 98 0
 328 001c 9F20     		movs	r0, #159
 329 001e FFF7FEFF 		bl	DigitLED_Write
 330 0022 6BE0     		b	.L4
 331              	.L7:
  99:.\main.c      ****     else if (hex == 0x02)
 332              		.loc 1 99 0
 333 0024 7B68     		ldr	r3, [r7, #4]
 334 0026 022B     		cmp	r3, #2
 335 0028 03D1     		bne	.L8
 100:.\main.c      ****         DigitLED_Write(0b00100101);  
 336              		.loc 1 100 0
 337 002a 2520     		movs	r0, #37
 338 002c FFF7FEFF 		bl	DigitLED_Write
 339 0030 64E0     		b	.L4
 340              	.L8:
 101:.\main.c      ****     else if (hex == 0x03)
 341              		.loc 1 101 0
 342 0032 7B68     		ldr	r3, [r7, #4]
 343 0034 032B     		cmp	r3, #3
 344 0036 03D1     		bne	.L9
 102:.\main.c      ****         DigitLED_Write(0b00001101); 
 345              		.loc 1 102 0
 346 0038 0D20     		movs	r0, #13
 347 003a FFF7FEFF 		bl	DigitLED_Write
 348 003e 5DE0     		b	.L4
 349              	.L9:
 103:.\main.c      ****     else if (hex == 0x04)
 350              		.loc 1 103 0
 351 0040 7B68     		ldr	r3, [r7, #4]
 352 0042 042B     		cmp	r3, #4
 353 0044 03D1     		bne	.L10
ARM GAS  C:\Users\ologa\AppData\Local\Temp\ccChgFj1.s 			page 9


 104:.\main.c      ****         DigitLED_Write(0b10011001);
 354              		.loc 1 104 0
 355 0046 9920     		movs	r0, #153
 356 0048 FFF7FEFF 		bl	DigitLED_Write
 357 004c 56E0     		b	.L4
 358              	.L10:
 105:.\main.c      ****     else if (hex == 0x05)
 359              		.loc 1 105 0
 360 004e 7B68     		ldr	r3, [r7, #4]
 361 0050 052B     		cmp	r3, #5
 362 0052 03D1     		bne	.L11
 106:.\main.c      ****         DigitLED_Write(0b01001001);
 363              		.loc 1 106 0
 364 0054 4920     		movs	r0, #73
 365 0056 FFF7FEFF 		bl	DigitLED_Write
 366 005a 4FE0     		b	.L4
 367              	.L11:
 107:.\main.c      ****     else if (hex == 0x06)
 368              		.loc 1 107 0
 369 005c 7B68     		ldr	r3, [r7, #4]
 370 005e 062B     		cmp	r3, #6
 371 0060 03D1     		bne	.L12
 108:.\main.c      ****         DigitLED_Write(0b01000001);
 372              		.loc 1 108 0
 373 0062 4120     		movs	r0, #65
 374 0064 FFF7FEFF 		bl	DigitLED_Write
 375 0068 48E0     		b	.L4
 376              	.L12:
 109:.\main.c      ****     else if (hex == 0x07)
 377              		.loc 1 109 0
 378 006a 7B68     		ldr	r3, [r7, #4]
 379 006c 072B     		cmp	r3, #7
 380 006e 03D1     		bne	.L13
 110:.\main.c      ****         DigitLED_Write(0b00011111); 
 381              		.loc 1 110 0
 382 0070 1F20     		movs	r0, #31
 383 0072 FFF7FEFF 		bl	DigitLED_Write
 384 0076 41E0     		b	.L4
 385              	.L13:
 111:.\main.c      ****     else if (hex == 0x08)
 386              		.loc 1 111 0
 387 0078 7B68     		ldr	r3, [r7, #4]
 388 007a 082B     		cmp	r3, #8
 389 007c 03D1     		bne	.L14
 112:.\main.c      ****         DigitLED_Write(0b00000001);
 390              		.loc 1 112 0
 391 007e 0120     		movs	r0, #1
 392 0080 FFF7FEFF 		bl	DigitLED_Write
 393 0084 3AE0     		b	.L4
 394              	.L14:
 113:.\main.c      ****     else if (hex == 0x09)
 395              		.loc 1 113 0
 396 0086 7B68     		ldr	r3, [r7, #4]
 397 0088 092B     		cmp	r3, #9
 398 008a 03D1     		bne	.L15
 114:.\main.c      ****         DigitLED_Write(0b00011001);
 399              		.loc 1 114 0
ARM GAS  C:\Users\ologa\AppData\Local\Temp\ccChgFj1.s 			page 10


 400 008c 1920     		movs	r0, #25
 401 008e FFF7FEFF 		bl	DigitLED_Write
 402 0092 33E0     		b	.L4
 403              	.L15:
 115:.\main.c      ****     else if (hex == 0x0a)
 404              		.loc 1 115 0
 405 0094 7B68     		ldr	r3, [r7, #4]
 406 0096 0A2B     		cmp	r3, #10
 407 0098 03D1     		bne	.L16
 116:.\main.c      ****         DigitLED_Write(0b00010001);
 408              		.loc 1 116 0
 409 009a 1120     		movs	r0, #17
 410 009c FFF7FEFF 		bl	DigitLED_Write
 411 00a0 2CE0     		b	.L4
 412              	.L16:
 117:.\main.c      ****     else if (hex == 0x0b)
 413              		.loc 1 117 0
 414 00a2 7B68     		ldr	r3, [r7, #4]
 415 00a4 0B2B     		cmp	r3, #11
 416 00a6 03D1     		bne	.L17
 118:.\main.c      ****         DigitLED_Write(0b11000001);
 417              		.loc 1 118 0
 418 00a8 C120     		movs	r0, #193
 419 00aa FFF7FEFF 		bl	DigitLED_Write
 420 00ae 25E0     		b	.L4
 421              	.L17:
 119:.\main.c      ****     else if (hex == 0x0c)
 422              		.loc 1 119 0
 423 00b0 7B68     		ldr	r3, [r7, #4]
 424 00b2 0C2B     		cmp	r3, #12
 425 00b4 03D1     		bne	.L18
 120:.\main.c      ****         DigitLED_Write(0b01100011);
 426              		.loc 1 120 0
 427 00b6 6320     		movs	r0, #99
 428 00b8 FFF7FEFF 		bl	DigitLED_Write
 429 00bc 1EE0     		b	.L4
 430              	.L18:
 121:.\main.c      ****     else if (hex == 0x0d)
 431              		.loc 1 121 0
 432 00be 7B68     		ldr	r3, [r7, #4]
 433 00c0 0D2B     		cmp	r3, #13
 434 00c2 03D1     		bne	.L19
 122:.\main.c      ****         DigitLED_Write(0b10000101);
 435              		.loc 1 122 0
 436 00c4 8520     		movs	r0, #133
 437 00c6 FFF7FEFF 		bl	DigitLED_Write
 438 00ca 17E0     		b	.L4
 439              	.L19:
 123:.\main.c      ****     else if (hex == 0x0e)
 440              		.loc 1 123 0
 441 00cc 7B68     		ldr	r3, [r7, #4]
 442 00ce 0E2B     		cmp	r3, #14
 443 00d0 03D1     		bne	.L20
 124:.\main.c      ****         DigitLED_Write(0b01100001);
 444              		.loc 1 124 0
 445 00d2 6120     		movs	r0, #97
 446 00d4 FFF7FEFF 		bl	DigitLED_Write
ARM GAS  C:\Users\ologa\AppData\Local\Temp\ccChgFj1.s 			page 11


 447 00d8 10E0     		b	.L4
 448              	.L20:
 125:.\main.c      ****     else if (hex == 0x0f)
 449              		.loc 1 125 0
 450 00da 7B68     		ldr	r3, [r7, #4]
 451 00dc 0F2B     		cmp	r3, #15
 452 00de 03D1     		bne	.L21
 126:.\main.c      ****         DigitLED_Write(0b01110001);
 453              		.loc 1 126 0
 454 00e0 7120     		movs	r0, #113
 455 00e2 FFF7FEFF 		bl	DigitLED_Write
 456 00e6 09E0     		b	.L4
 457              	.L21:
 127:.\main.c      ****     else if (hex == 0x10)
 458              		.loc 1 127 0
 459 00e8 7B68     		ldr	r3, [r7, #4]
 460 00ea 102B     		cmp	r3, #16
 461 00ec 03D1     		bne	.L22
 128:.\main.c      ****         DigitLED_Write(0b11111110);
 462              		.loc 1 128 0
 463 00ee FE20     		movs	r0, #254
 464 00f0 FFF7FEFF 		bl	DigitLED_Write
 465 00f4 02E0     		b	.L4
 466              	.L22:
 129:.\main.c      ****     else
 130:.\main.c      ****         DigitLED_Write(0b11111111);
 467              		.loc 1 130 0
 468 00f6 FF20     		movs	r0, #255
 469 00f8 FFF7FEFF 		bl	DigitLED_Write
 470              	.L4:
 131:.\main.c      **** }
 471              		.loc 1 131 0
 472 00fc 0837     		adds	r7, r7, #8
 473              		.cfi_def_cfa_offset 8
 474 00fe BD46     		mov	sp, r7
 475              		.cfi_def_cfa_register 13
 476              		@ sp needed
 477 0100 80BD     		pop	{r7, pc}
 478              		.cfi_endproc
 479              	.LFE65:
 480              		.size	DigitLED_WriteHex, .-DigitLED_WriteHex
 481 0102 00BF     		.text
 482              	.Letext0:
 483              		.file 2 "c:\\program files (x86)\\cypress\\psoc creator\\3.3\\psoc creator\\import\\gnu\\arm\\4.9.
 484              		.file 3 "c:\\program files (x86)\\cypress\\psoc creator\\3.3\\psoc creator\\import\\gnu\\arm\\4.9.
 485              		.file 4 "Generated_Source\\PSoC5/core_cm3.h"