ARM GAS  C:\Users\Leeb\AppData\Local\Temp\ccliKLuo.s 			page 1


   1              		.syntax unified
   2              		.cpu cortex-m3
   3              		.fpu softvfp
   4              		.eabi_attribute 20, 1
   5              		.eabi_attribute 21, 1
   6              		.eabi_attribute 23, 3
   7              		.eabi_attribute 24, 1
   8              		.eabi_attribute 25, 1
   9              		.eabi_attribute 26, 1
  10              		.eabi_attribute 30, 6
  11              		.eabi_attribute 18, 4
  12              		.thumb
  13              		.file	"main.c"
  20 0000 DD000000 		.text
  20      02004600 
  20      00000201 
  20      FB0E0D00 
  20      01010101 
  21              	.Ltext0:
  22              		.cfi_sections	.debug_frame
  23              		.section	.text.main,"ax",%progbits
  24              		.align	2
  25              		.global	main
  26              		.thumb
  27              		.thumb_func
  28              		.type	main, %function
  29              	main:
  30              	.LFB29:
  31              		.file 1 ".\\main.c"
   1:.\main.c      **** /* ========================================
   2:.\main.c      ****  *
   3:.\main.c      ****  * 6.115 Demo Program
   4:.\main.c      ****  * All Rights Reserved
   5:.\main.c      ****  * North and Steven Leeb, 2013
   6:.\main.c      ****  *
   7:.\main.c      ****  * CONFIDENTIAL AND PROPRIETARY INFORMATION
   8:.\main.c      ****  * WHICH IS THE PROPERTY OF your company.
   9:.\main.c      ****  *
  10:.\main.c      ****  * ========================================
  11:.\main.c      **** */
  12:.\main.c      **** #include <device.h>
  13:.\main.c      **** void DigitLED_Write( int);
  14:.\main.c      **** void DigitLED_WriteHex( int);
  15:.\main.c      **** 
  16:.\main.c      **** void main()
  17:.\main.c      **** {
  32              		.loc 1 17 0
  33              		.cfi_startproc
  34              		@ args = 0, pretend = 0, frame = 0
  35              		@ frame_needed = 1, uses_anonymous_args = 0
  36 0000 80B5     		push	{r7, lr}
ARM GAS  C:\Users\Leeb\AppData\Local\Temp\ccliKLuo.s 			page 2


  37              	.LCFI0:
  38              		.cfi_def_cfa_offset 8
  39 0002 00AF     		add	r7, sp, #0
  40              		.cfi_offset 14, -4
  41              		.cfi_offset 7, -8
  42              	.LCFI1:
  43              		.cfi_def_cfa_register 7
  44              	.L2:
  18:.\main.c      **** 
  19:.\main.c      ****     while(1)
  20:.\main.c      ****     {
  21:.\main.c      ****         DigitLED_WriteHex(0x06);    // 6
  45              		.loc 1 21 0
  46 0004 4FF00600 		mov	r0, #6
  47 0008 FFF7FEFF 		bl	DigitLED_WriteHex
  22:.\main.c      ****         CyDelay(500);
  48              		.loc 1 22 0
  49 000c 4FF4FA70 		mov	r0, #500
  50 0010 FFF7FEFF 		bl	CyDelay
  23:.\main.c      ****         DigitLED_WriteHex(0xff);    // null
  51              		.loc 1 23 0
  52 0014 4FF0FF00 		mov	r0, #255
  53 0018 FFF7FEFF 		bl	DigitLED_WriteHex
  24:.\main.c      ****         CyDelay(100);
  54              		.loc 1 24 0
  55 001c 4FF06400 		mov	r0, #100
  56 0020 FFF7FEFF 		bl	CyDelay
  25:.\main.c      ****         DigitLED_WriteHex(0x10);    // .
  57              		.loc 1 25 0
  58 0024 4FF01000 		mov	r0, #16
  59 0028 FFF7FEFF 		bl	DigitLED_WriteHex
  26:.\main.c      ****         CyDelay(500);
  60              		.loc 1 26 0
  61 002c 4FF4FA70 		mov	r0, #500
  62 0030 FFF7FEFF 		bl	CyDelay
  27:.\main.c      ****         DigitLED_WriteHex(0xff);    // null
  63              		.loc 1 27 0
  64 0034 4FF0FF00 		mov	r0, #255
  65 0038 FFF7FEFF 		bl	DigitLED_WriteHex
  28:.\main.c      ****         CyDelay(100);
  66              		.loc 1 28 0
  67 003c 4FF06400 		mov	r0, #100
  68 0040 FFF7FEFF 		bl	CyDelay
  29:.\main.c      ****         DigitLED_WriteHex(0x01);    // 1
  69              		.loc 1 29 0
  70 0044 4FF00100 		mov	r0, #1
  71 0048 FFF7FEFF 		bl	DigitLED_WriteHex
  30:.\main.c      ****         CyDelay(500);
  72              		.loc 1 30 0
  73 004c 4FF4FA70 		mov	r0, #500
  74 0050 FFF7FEFF 		bl	CyDelay
  31:.\main.c      ****         DigitLED_WriteHex(0xff);    // null
  75              		.loc 1 31 0
  76 0054 4FF0FF00 		mov	r0, #255
  77 0058 FFF7FEFF 		bl	DigitLED_WriteHex
  32:.\main.c      ****         CyDelay(100);
  78              		.loc 1 32 0
ARM GAS  C:\Users\Leeb\AppData\Local\Temp\ccliKLuo.s 			page 3


  79 005c 4FF06400 		mov	r0, #100
  80 0060 FFF7FEFF 		bl	CyDelay
  33:.\main.c      ****         DigitLED_WriteHex(0x01);    // 1
  81              		.loc 1 33 0
  82 0064 4FF00100 		mov	r0, #1
  83 0068 FFF7FEFF 		bl	DigitLED_WriteHex
  34:.\main.c      ****         CyDelay(500);
  84              		.loc 1 34 0
  85 006c 4FF4FA70 		mov	r0, #500
  86 0070 FFF7FEFF 		bl	CyDelay
  35:.\main.c      ****         DigitLED_WriteHex(0xff);    // null
  87              		.loc 1 35 0
  88 0074 4FF0FF00 		mov	r0, #255
  89 0078 FFF7FEFF 		bl	DigitLED_WriteHex
  36:.\main.c      ****         CyDelay(100);
  90              		.loc 1 36 0
  91 007c 4FF06400 		mov	r0, #100
  92 0080 FFF7FEFF 		bl	CyDelay
  37:.\main.c      ****         DigitLED_WriteHex(0x05);    // 5
  93              		.loc 1 37 0
  94 0084 4FF00500 		mov	r0, #5
  95 0088 FFF7FEFF 		bl	DigitLED_WriteHex
  38:.\main.c      ****         CyDelay(500);
  96              		.loc 1 38 0
  97 008c 4FF4FA70 		mov	r0, #500
  98 0090 FFF7FEFF 		bl	CyDelay
  39:.\main.c      ****         DigitLED_WriteHex(0xff);    // null
  99              		.loc 1 39 0
 100 0094 4FF0FF00 		mov	r0, #255
 101 0098 FFF7FEFF 		bl	DigitLED_WriteHex
  40:.\main.c      ****         CyDelay(100);
 102              		.loc 1 40 0
 103 009c 4FF06400 		mov	r0, #100
 104 00a0 FFF7FEFF 		bl	CyDelay
  41:.\main.c      ****         DigitLED_WriteHex(0xff);    // null
 105              		.loc 1 41 0
 106 00a4 4FF0FF00 		mov	r0, #255
 107 00a8 FFF7FEFF 		bl	DigitLED_WriteHex
  42:.\main.c      ****         CyDelay(500);
 108              		.loc 1 42 0
 109 00ac 4FF4FA70 		mov	r0, #500
 110 00b0 FFF7FEFF 		bl	CyDelay
  43:.\main.c      ****         DigitLED_WriteHex(0xff);    // null
 111              		.loc 1 43 0
 112 00b4 4FF0FF00 		mov	r0, #255
 113 00b8 FFF7FEFF 		bl	DigitLED_WriteHex
  44:.\main.c      ****         CyDelay(100);
 114              		.loc 1 44 0
 115 00bc 4FF06400 		mov	r0, #100
 116 00c0 FFF7FEFF 		bl	CyDelay
  45:.\main.c      ****         DigitLED_WriteHex(0x01);    // I
 117              		.loc 1 45 0
 118 00c4 4FF00100 		mov	r0, #1
 119 00c8 FFF7FEFF 		bl	DigitLED_WriteHex
  46:.\main.c      ****         CyDelay(500);
 120              		.loc 1 46 0
 121 00cc 4FF4FA70 		mov	r0, #500
ARM GAS  C:\Users\Leeb\AppData\Local\Temp\ccliKLuo.s 			page 4


 122 00d0 FFF7FEFF 		bl	CyDelay
  47:.\main.c      ****         DigitLED_WriteHex(0xff);    // null
 123              		.loc 1 47 0
 124 00d4 4FF0FF00 		mov	r0, #255
 125 00d8 FFF7FEFF 		bl	DigitLED_WriteHex
  48:.\main.c      ****         CyDelay(100);
 126              		.loc 1 48 0
 127 00dc 4FF06400 		mov	r0, #100
 128 00e0 FFF7FEFF 		bl	CyDelay
  49:.\main.c      ****         DigitLED_WriteHex(0x05);    // S
 129              		.loc 1 49 0
 130 00e4 4FF00500 		mov	r0, #5
 131 00e8 FFF7FEFF 		bl	DigitLED_WriteHex
  50:.\main.c      ****         CyDelay(500);
 132              		.loc 1 50 0
 133 00ec 4FF4FA70 		mov	r0, #500
 134 00f0 FFF7FEFF 		bl	CyDelay
  51:.\main.c      ****         DigitLED_WriteHex(0xff);    // null
 135              		.loc 1 51 0
 136 00f4 4FF0FF00 		mov	r0, #255
 137 00f8 FFF7FEFF 		bl	DigitLED_WriteHex
  52:.\main.c      ****         CyDelay(100);
 138              		.loc 1 52 0
 139 00fc 4FF06400 		mov	r0, #100
 140 0100 FFF7FEFF 		bl	CyDelay
  53:.\main.c      ****         DigitLED_WriteHex(0xff);    // null
 141              		.loc 1 53 0
 142 0104 4FF0FF00 		mov	r0, #255
 143 0108 FFF7FEFF 		bl	DigitLED_WriteHex
  54:.\main.c      ****         CyDelay(500);
 144              		.loc 1 54 0
 145 010c 4FF4FA70 		mov	r0, #500
 146 0110 FFF7FEFF 		bl	CyDelay
  55:.\main.c      ****         DigitLED_WriteHex(0xff);    // null
 147              		.loc 1 55 0
 148 0114 4FF0FF00 		mov	r0, #255
 149 0118 FFF7FEFF 		bl	DigitLED_WriteHex
  56:.\main.c      ****         CyDelay(100);
 150              		.loc 1 56 0
 151 011c 4FF06400 		mov	r0, #100
 152 0120 FFF7FEFF 		bl	CyDelay
  57:.\main.c      ****         DigitLED_Write(0b01100011); // C
 153              		.loc 1 57 0
 154 0124 4FF06300 		mov	r0, #99
 155 0128 FFF7FEFF 		bl	DigitLED_Write
  58:.\main.c      ****         CyDelay(500);
 156              		.loc 1 58 0
 157 012c 4FF4FA70 		mov	r0, #500
 158 0130 FFF7FEFF 		bl	CyDelay
  59:.\main.c      ****         DigitLED_WriteHex(0xff);    // null
 159              		.loc 1 59 0
 160 0134 4FF0FF00 		mov	r0, #255
 161 0138 FFF7FEFF 		bl	DigitLED_WriteHex
  60:.\main.c      ****         CyDelay(100);
 162              		.loc 1 60 0
 163 013c 4FF06400 		mov	r0, #100
 164 0140 FFF7FEFF 		bl	CyDelay
ARM GAS  C:\Users\Leeb\AppData\Local\Temp\ccliKLuo.s 			page 5


  61:.\main.c      ****         DigitLED_WriteHex(0x00);    // O
 165              		.loc 1 61 0
 166 0144 4FF00000 		mov	r0, #0
 167 0148 FFF7FEFF 		bl	DigitLED_WriteHex
  62:.\main.c      ****         CyDelay(500);
 168              		.loc 1 62 0
 169 014c 4FF4FA70 		mov	r0, #500
 170 0150 FFF7FEFF 		bl	CyDelay
  63:.\main.c      ****         DigitLED_WriteHex(0xff);    // null
 171              		.loc 1 63 0
 172 0154 4FF0FF00 		mov	r0, #255
 173 0158 FFF7FEFF 		bl	DigitLED_WriteHex
  64:.\main.c      ****         CyDelay(100);
 174              		.loc 1 64 0
 175 015c 4FF06400 		mov	r0, #100
 176 0160 FFF7FEFF 		bl	CyDelay
  65:.\main.c      ****         DigitLED_WriteHex(0x00);    // O
 177              		.loc 1 65 0
 178 0164 4FF00000 		mov	r0, #0
 179 0168 FFF7FEFF 		bl	DigitLED_WriteHex
  66:.\main.c      ****         CyDelay(500);
 180              		.loc 1 66 0
 181 016c 4FF4FA70 		mov	r0, #500
 182 0170 FFF7FEFF 		bl	CyDelay
  67:.\main.c      ****         DigitLED_WriteHex(0xff);    // null
 183              		.loc 1 67 0
 184 0174 4FF0FF00 		mov	r0, #255
 185 0178 FFF7FEFF 		bl	DigitLED_WriteHex
  68:.\main.c      ****         CyDelay(100);
 186              		.loc 1 68 0
 187 017c 4FF06400 		mov	r0, #100
 188 0180 FFF7FEFF 		bl	CyDelay
  69:.\main.c      ****         DigitLED_Write(0b11100011); // L
 189              		.loc 1 69 0
 190 0184 4FF0E300 		mov	r0, #227
 191 0188 FFF7FEFF 		bl	DigitLED_Write
  70:.\main.c      ****         CyDelay(500);
 192              		.loc 1 70 0
 193 018c 4FF4FA70 		mov	r0, #500
 194 0190 FFF7FEFF 		bl	CyDelay
  71:.\main.c      ****         DigitLED_WriteHex(0xff);    // null
 195              		.loc 1 71 0
 196 0194 4FF0FF00 		mov	r0, #255
 197 0198 FFF7FEFF 		bl	DigitLED_WriteHex
  72:.\main.c      ****         CyDelay(500);
 198              		.loc 1 72 0
 199 019c 4FF4FA70 		mov	r0, #500
 200 01a0 FFF7FEFF 		bl	CyDelay
  73:.\main.c      ****     }
 201              		.loc 1 73 0
 202 01a4 2EE7     		b	.L2
 203              		.cfi_endproc
 204              	.LFE29:
 205              		.size	main, .-main
 206 01a6 00BF     		.section	.text.DigitLED_Write,"ax",%progbits
 207              		.align	2
 208              		.global	DigitLED_Write
ARM GAS  C:\Users\Leeb\AppData\Local\Temp\ccliKLuo.s 			page 6


 209              		.thumb
 210              		.thumb_func
 211              		.type	DigitLED_Write, %function
 212              	DigitLED_Write:
 213              	.LFB30:
  74:.\main.c      **** }
  75:.\main.c      **** 
  76:.\main.c      **** // DigitLED_Write will write the binary number "bi" to turn on/off each segment
  77:.\main.c      **** // of the digit LED. The binary number correspond to 0b000000000 => 0bABCDEGFP
  78:.\main.c      **** // Make each bit "0" to turn each segment "on"
  79:.\main.c      **** 
  80:.\main.c      **** void DigitLED_Write( int bi)
  81:.\main.c      **** {
 214              		.loc 1 81 0
 215              		.cfi_startproc
 216              		@ args = 0, pretend = 0, frame = 8
 217              		@ frame_needed = 1, uses_anonymous_args = 0
 218 0000 80B5     		push	{r7, lr}
 219              	.LCFI2:
 220              		.cfi_def_cfa_offset 8
 221 0002 82B0     		sub	sp, sp, #8
 222              	.LCFI3:
 223              		.cfi_def_cfa_offset 16
 224 0004 00AF     		add	r7, sp, #0
 225              		.cfi_offset 14, -4
 226              		.cfi_offset 7, -8
 227              	.LCFI4:
 228              		.cfi_def_cfa_register 7
 229 0006 7860     		str	r0, [r7, #4]
  82:.\main.c      ****     A_Write((bi >> 7) & 1);
 230              		.loc 1 82 0
 231 0008 7B68     		ldr	r3, [r7, #4]
 232 000a 4FEAE313 		asr	r3, r3, #7
 233 000e DBB2     		uxtb	r3, r3
 234 0010 03F00103 		and	r3, r3, #1
 235 0014 1846     		mov	r0, r3
 236 0016 FFF7FEFF 		bl	A_Write
  83:.\main.c      ****     B_Write((bi >> 6) & 1);
 237              		.loc 1 83 0
 238 001a 7B68     		ldr	r3, [r7, #4]
 239 001c 4FEAA313 		asr	r3, r3, #6
 240 0020 DBB2     		uxtb	r3, r3
 241 0022 03F00103 		and	r3, r3, #1
 242 0026 1846     		mov	r0, r3
 243 0028 FFF7FEFF 		bl	B_Write
  84:.\main.c      ****     C_Write((bi >> 5) & 1);
 244              		.loc 1 84 0
 245 002c 7B68     		ldr	r3, [r7, #4]
 246 002e 4FEA6313 		asr	r3, r3, #5
 247 0032 DBB2     		uxtb	r3, r3
 248 0034 03F00103 		and	r3, r3, #1
 249 0038 1846     		mov	r0, r3
 250 003a FFF7FEFF 		bl	C_Write
  85:.\main.c      ****     D_Write((bi >> 4) & 1);
 251              		.loc 1 85 0
 252 003e 7B68     		ldr	r3, [r7, #4]
 253 0040 4FEA2313 		asr	r3, r3, #4
ARM GAS  C:\Users\Leeb\AppData\Local\Temp\ccliKLuo.s 			page 7


 254 0044 DBB2     		uxtb	r3, r3
 255 0046 03F00103 		and	r3, r3, #1
 256 004a 1846     		mov	r0, r3
 257 004c FFF7FEFF 		bl	D_Write
  86:.\main.c      ****     E_Write((bi >> 3) & 1);
 258              		.loc 1 86 0
 259 0050 7B68     		ldr	r3, [r7, #4]
 260 0052 4FEAE303 		asr	r3, r3, #3
 261 0056 DBB2     		uxtb	r3, r3
 262 0058 03F00103 		and	r3, r3, #1
 263 005c 1846     		mov	r0, r3
 264 005e FFF7FEFF 		bl	E_Write
  87:.\main.c      ****     F_Write((bi >> 2) & 1);
 265              		.loc 1 87 0
 266 0062 7B68     		ldr	r3, [r7, #4]
 267 0064 4FEAA303 		asr	r3, r3, #2
 268 0068 DBB2     		uxtb	r3, r3
 269 006a 03F00103 		and	r3, r3, #1
 270 006e 1846     		mov	r0, r3
 271 0070 FFF7FEFF 		bl	F_Write
  88:.\main.c      ****     G_Write((bi >> 1) & 1);
 272              		.loc 1 88 0
 273 0074 7B68     		ldr	r3, [r7, #4]
 274 0076 4FEA6303 		asr	r3, r3, #1
 275 007a DBB2     		uxtb	r3, r3
 276 007c 03F00103 		and	r3, r3, #1
 277 0080 1846     		mov	r0, r3
 278 0082 FFF7FEFF 		bl	G_Write
  89:.\main.c      ****     P_Write((bi >> 0) & 1);
 279              		.loc 1 89 0
 280 0086 7B68     		ldr	r3, [r7, #4]
 281 0088 DBB2     		uxtb	r3, r3
 282 008a 03F00103 		and	r3, r3, #1
 283 008e 1846     		mov	r0, r3
 284 0090 FFF7FEFF 		bl	P_Write
  90:.\main.c      **** }
 285              		.loc 1 90 0
 286 0094 07F10807 		add	r7, r7, #8
 287 0098 BD46     		mov	sp, r7
 288 009a 80BD     		pop	{r7, pc}
 289              		.cfi_endproc
 290              	.LFE30:
 291              		.size	DigitLED_Write, .-DigitLED_Write
 292              		.section	.text.DigitLED_WriteHex,"ax",%progbits
 293              		.align	2
 294              		.global	DigitLED_WriteHex
 295              		.thumb
 296              		.thumb_func
 297              		.type	DigitLED_WriteHex, %function
 298              	DigitLED_WriteHex:
 299              	.LFB31:
  91:.\main.c      **** 
  92:.\main.c      **** // DigitLED_WriteHex will write the hexadicimal number "hex" to the LED screen
  93:.\main.c      **** void DigitLED_WriteHex( int hex)
  94:.\main.c      **** {
 300              		.loc 1 94 0
 301              		.cfi_startproc
ARM GAS  C:\Users\Leeb\AppData\Local\Temp\ccliKLuo.s 			page 8


 302              		@ args = 0, pretend = 0, frame = 8
 303              		@ frame_needed = 1, uses_anonymous_args = 0
 304 0000 80B5     		push	{r7, lr}
 305              	.LCFI5:
 306              		.cfi_def_cfa_offset 8
 307 0002 82B0     		sub	sp, sp, #8
 308              	.LCFI6:
 309              		.cfi_def_cfa_offset 16
 310 0004 00AF     		add	r7, sp, #0
 311              		.cfi_offset 14, -4
 312              		.cfi_offset 7, -8
 313              	.LCFI7:
 314              		.cfi_def_cfa_register 7
 315 0006 7860     		str	r0, [r7, #4]
  95:.\main.c      ****     if (hex == 0x00)
 316              		.loc 1 95 0
 317 0008 7B68     		ldr	r3, [r7, #4]
 318 000a 002B     		cmp	r3, #0
 319 000c 04D1     		bne	.L7
  96:.\main.c      ****         DigitLED_Write(0b00000011);
 320              		.loc 1 96 0
 321 000e 4FF00300 		mov	r0, #3
 322 0012 FFF7FEFF 		bl	DigitLED_Write
 323 0016 83E0     		b	.L25
 324              	.L7:
  97:.\main.c      ****     else if (hex == 0x01)
 325              		.loc 1 97 0
 326 0018 7B68     		ldr	r3, [r7, #4]
 327 001a 012B     		cmp	r3, #1
 328 001c 04D1     		bne	.L9
  98:.\main.c      ****         DigitLED_Write(0b10011111);
 329              		.loc 1 98 0
 330 001e 4FF09F00 		mov	r0, #159
 331 0022 FFF7FEFF 		bl	DigitLED_Write
 332 0026 7BE0     		b	.L25
 333              	.L9:
  99:.\main.c      ****     else if (hex == 0x02)
 334              		.loc 1 99 0
 335 0028 7B68     		ldr	r3, [r7, #4]
 336 002a 022B     		cmp	r3, #2
 337 002c 04D1     		bne	.L10
 100:.\main.c      ****         DigitLED_Write(0b00100101);  
 338              		.loc 1 100 0
 339 002e 4FF02500 		mov	r0, #37
 340 0032 FFF7FEFF 		bl	DigitLED_Write
 341 0036 73E0     		b	.L25
 342              	.L10:
 101:.\main.c      ****     else if (hex == 0x03)
 343              		.loc 1 101 0
 344 0038 7B68     		ldr	r3, [r7, #4]
 345 003a 032B     		cmp	r3, #3
 346 003c 04D1     		bne	.L11
 102:.\main.c      ****         DigitLED_Write(0b00001101); 
 347              		.loc 1 102 0
 348 003e 4FF00D00 		mov	r0, #13
 349 0042 FFF7FEFF 		bl	DigitLED_Write
 350 0046 6BE0     		b	.L25
ARM GAS  C:\Users\Leeb\AppData\Local\Temp\ccliKLuo.s 			page 9


 351              	.L11:
 103:.\main.c      ****     else if (hex == 0x04)
 352              		.loc 1 103 0
 353 0048 7B68     		ldr	r3, [r7, #4]
 354 004a 042B     		cmp	r3, #4
 355 004c 04D1     		bne	.L12
 104:.\main.c      ****         DigitLED_Write(0b10011001);
 356              		.loc 1 104 0
 357 004e 4FF09900 		mov	r0, #153
 358 0052 FFF7FEFF 		bl	DigitLED_Write
 359 0056 63E0     		b	.L25
 360              	.L12:
 105:.\main.c      ****     else if (hex == 0x05)
 361              		.loc 1 105 0
 362 0058 7B68     		ldr	r3, [r7, #4]
 363 005a 052B     		cmp	r3, #5
 364 005c 04D1     		bne	.L13
 106:.\main.c      ****         DigitLED_Write(0b01001001);
 365              		.loc 1 106 0
 366 005e 4FF04900 		mov	r0, #73
 367 0062 FFF7FEFF 		bl	DigitLED_Write
 368 0066 5BE0     		b	.L25
 369              	.L13:
 107:.\main.c      ****     else if (hex == 0x06)
 370              		.loc 1 107 0
 371 0068 7B68     		ldr	r3, [r7, #4]
 372 006a 062B     		cmp	r3, #6
 373 006c 04D1     		bne	.L14
 108:.\main.c      ****         DigitLED_Write(0b01000001);
 374              		.loc 1 108 0
 375 006e 4FF04100 		mov	r0, #65
 376 0072 FFF7FEFF 		bl	DigitLED_Write
 377 0076 53E0     		b	.L25
 378              	.L14:
 109:.\main.c      ****     else if (hex == 0x07)
 379              		.loc 1 109 0
 380 0078 7B68     		ldr	r3, [r7, #4]
 381 007a 072B     		cmp	r3, #7
 382 007c 04D1     		bne	.L15
 110:.\main.c      ****         DigitLED_Write(0b00011111); 
 383              		.loc 1 110 0
 384 007e 4FF01F00 		mov	r0, #31
 385 0082 FFF7FEFF 		bl	DigitLED_Write
 386 0086 4BE0     		b	.L25
 387              	.L15:
 111:.\main.c      ****     else if (hex == 0x08)
 388              		.loc 1 111 0
 389 0088 7B68     		ldr	r3, [r7, #4]
 390 008a 082B     		cmp	r3, #8
 391 008c 04D1     		bne	.L16
 112:.\main.c      ****         DigitLED_Write(0b00000001);
 392              		.loc 1 112 0
 393 008e 4FF00100 		mov	r0, #1
 394 0092 FFF7FEFF 		bl	DigitLED_Write
 395 0096 43E0     		b	.L25
 396              	.L16:
 113:.\main.c      ****     else if (hex == 0x09)
ARM GAS  C:\Users\Leeb\AppData\Local\Temp\ccliKLuo.s 			page 10


 397              		.loc 1 113 0
 398 0098 7B68     		ldr	r3, [r7, #4]
 399 009a 092B     		cmp	r3, #9
 400 009c 04D1     		bne	.L17
 114:.\main.c      ****         DigitLED_Write(0b00011001);
 401              		.loc 1 114 0
 402 009e 4FF01900 		mov	r0, #25
 403 00a2 FFF7FEFF 		bl	DigitLED_Write
 404 00a6 3BE0     		b	.L25
 405              	.L17:
 115:.\main.c      ****     else if (hex == 0x0a)
 406              		.loc 1 115 0
 407 00a8 7B68     		ldr	r3, [r7, #4]
 408 00aa 0A2B     		cmp	r3, #10
 409 00ac 04D1     		bne	.L18
 116:.\main.c      ****         DigitLED_Write(0b00010001);
 410              		.loc 1 116 0
 411 00ae 4FF01100 		mov	r0, #17
 412 00b2 FFF7FEFF 		bl	DigitLED_Write
 413 00b6 33E0     		b	.L25
 414              	.L18:
 117:.\main.c      ****     else if (hex == 0x0b)
 415              		.loc 1 117 0
 416 00b8 7B68     		ldr	r3, [r7, #4]
 417 00ba 0B2B     		cmp	r3, #11
 418 00bc 04D1     		bne	.L19
 118:.\main.c      ****         DigitLED_Write(0b11000001);
 419              		.loc 1 118 0
 420 00be 4FF0C100 		mov	r0, #193
 421 00c2 FFF7FEFF 		bl	DigitLED_Write
 422 00c6 2BE0     		b	.L25
 423              	.L19:
 119:.\main.c      ****     else if (hex == 0x0c)
 424              		.loc 1 119 0
 425 00c8 7B68     		ldr	r3, [r7, #4]
 426 00ca 0C2B     		cmp	r3, #12
 427 00cc 04D1     		bne	.L20
 120:.\main.c      ****         DigitLED_Write(0b01100011);
 428              		.loc 1 120 0
 429 00ce 4FF06300 		mov	r0, #99
 430 00d2 FFF7FEFF 		bl	DigitLED_Write
 431 00d6 23E0     		b	.L25
 432              	.L20:
 121:.\main.c      ****     else if (hex == 0x0d)
 433              		.loc 1 121 0
 434 00d8 7B68     		ldr	r3, [r7, #4]
 435 00da 0D2B     		cmp	r3, #13
 436 00dc 04D1     		bne	.L21
 122:.\main.c      ****         DigitLED_Write(0b10000101);
 437              		.loc 1 122 0
 438 00de 4FF08500 		mov	r0, #133
 439 00e2 FFF7FEFF 		bl	DigitLED_Write
 440 00e6 1BE0     		b	.L25
 441              	.L21:
 123:.\main.c      ****     else if (hex == 0x0e)
 442              		.loc 1 123 0
 443 00e8 7B68     		ldr	r3, [r7, #4]
ARM GAS  C:\Users\Leeb\AppData\Local\Temp\ccliKLuo.s 			page 11


 444 00ea 0E2B     		cmp	r3, #14
 445 00ec 04D1     		bne	.L22
 124:.\main.c      ****         DigitLED_Write(0b01100001);
 446              		.loc 1 124 0
 447 00ee 4FF06100 		mov	r0, #97
 448 00f2 FFF7FEFF 		bl	DigitLED_Write
 449 00f6 13E0     		b	.L25
 450              	.L22:
 125:.\main.c      ****     else if (hex == 0x0f)
 451              		.loc 1 125 0
 452 00f8 7B68     		ldr	r3, [r7, #4]
 453 00fa 0F2B     		cmp	r3, #15
 454 00fc 04D1     		bne	.L23
 126:.\main.c      ****         DigitLED_Write(0b01110001);
 455              		.loc 1 126 0
 456 00fe 4FF07100 		mov	r0, #113
 457 0102 FFF7FEFF 		bl	DigitLED_Write
 458 0106 0BE0     		b	.L25
 459              	.L23:
 127:.\main.c      ****     else if (hex == 0x10)
 460              		.loc 1 127 0
 461 0108 7B68     		ldr	r3, [r7, #4]
 462 010a 102B     		cmp	r3, #16
 463 010c 04D1     		bne	.L24
 128:.\main.c      ****         DigitLED_Write(0b11111110);
 464              		.loc 1 128 0
 465 010e 4FF0FE00 		mov	r0, #254
 466 0112 FFF7FEFF 		bl	DigitLED_Write
 467 0116 03E0     		b	.L25
 468              	.L24:
 129:.\main.c      ****     else
 130:.\main.c      ****         DigitLED_Write(0b11111111);
 469              		.loc 1 130 0
 470 0118 4FF0FF00 		mov	r0, #255
 471 011c FFF7FEFF 		bl	DigitLED_Write
 472              	.L25:
 131:.\main.c      **** }
 473              		.loc 1 131 0
 474 0120 07F10807 		add	r7, r7, #8
 475 0124 BD46     		mov	sp, r7
 476 0126 80BD     		pop	{r7, pc}
 477              		.cfi_endproc
 478              	.LFE31:
 479              		.size	DigitLED_WriteHex, .-DigitLED_WriteHex
 480              		.text
 481              	.Letext0: