ARM GAS  C:\Users\ologa\AppData\Local\Temp\ccqrg31h.s 			page 1


   1              		.syntax unified
   2              		.cpu cortex-m3
   3              		.fpu softvfp
   4              		.eabi_attribute 20, 1
   5              		.eabi_attribute 21, 1
   6              		.eabi_attribute 23, 3
   7              		.eabi_attribute 24, 1
   8              		.eabi_attribute 25, 1
   9              		.eabi_attribute 26, 1
  10              		.eabi_attribute 30, 1
  11              		.eabi_attribute 34, 1
  12              		.eabi_attribute 18, 4
  13              		.thumb
  14              		.file	"main.c"
  15              		.text
  16              	.Ltext0:
  17              		.cfi_sections	.debug_frame
  18              		.section	.text.R_XADC,"ax",%progbits
  19              		.align	2
  20              		.global	R_XADC
  21              		.thumb
  22              		.thumb_func
  23              		.type	R_XADC, %function
  24              	R_XADC:
  25              	.LFB64:
  26              		.file 1 ".\\main.c"
   1:.\main.c      **** /* ========================================
   2:.\main.c      ****  *
   3:.\main.c      ****  * Copyright YOUR COMPANY, THE YEAR
   4:.\main.c      ****  * All Rights Reserved
   5:.\main.c      ****  * UNPUBLISHED, LICENSED SOFTWARE.
   6:.\main.c      ****  *
   7:.\main.c      ****  * CONFIDENTIAL AND PROPRIETARY INFORMATION
   8:.\main.c      ****  * WHICH IS THE PROPERTY OF your company.
   9:.\main.c      ****  *
  10:.\main.c      ****  * ========================================
  11:.\main.c      **** */
  12:.\main.c      **** #include <project.h>
  13:.\main.c      **** #include <stdio.h>
  14:.\main.c      **** #include <math.h>
  15:.\main.c      **** uint16 xadcResult = 0;
  16:.\main.c      **** uint16 yadcResult = 0;
  17:.\main.c      **** char xsend = 4;
  18:.\main.c      **** char ysend = 4;
  19:.\main.c      **** char bstate =0;
  20:.\main.c      ****    
  21:.\main.c      **** void R_XADC();
  22:.\main.c      **** void R_YADC();
  23:.\main.c      **** void C_XADC();
  24:.\main.c      **** void C_YADC();
  25:.\main.c      **** void C_B();
  26:.\main.c      **** 
  27:.\main.c      **** int main()
  28:.\main.c      **** {
  29:.\main.c      ****     CyGlobalIntEnable; /* Enable global interrupts. */
  30:.\main.c      ****     
  31:.\main.c      ****     /* Place your initialization/startup code here (e.g. MyInst_Start()) */
ARM GAS  C:\Users\ologa\AppData\Local\Temp\ccqrg31h.s 			page 2


  32:.\main.c      **** 
  33:.\main.c      ****     UART_1_Init();
  34:.\main.c      ****     UART_1_Start();
  35:.\main.c      ****     unsigned char j = 10;
  36:.\main.c      ****     //int Result[2];
  37:.\main.c      ****     //int bytesWritten;     
  38:.\main.c      ****     //char S1[8];   
  39:.\main.c      ****     
  40:.\main.c      ****     ADC_SAR_1_Start();
  41:.\main.c      ****     ADC_SAR_2_Start();
  42:.\main.c      ****     ADC_SAR_1_StartConvert();
  43:.\main.c      ****     ADC_SAR_2_StartConvert();
  44:.\main.c      ****     //UART_1_PutString("Hello World!");
  45:.\main.c      ****     for(;;)
  46:.\main.c      ****     {
  47:.\main.c      ****         R_XADC();
  48:.\main.c      ****         R_YADC();
  49:.\main.c      ****         C_XADC();
  50:.\main.c      ****         C_YADC();
  51:.\main.c      ****         C_B();
  52:.\main.c      ****         UART_1_WriteTxData(xsend);
  53:.\main.c      ****         CyDelay(j);	
  54:.\main.c      ****         UART_1_WriteTxData(ysend);
  55:.\main.c      ****         CyDelay(j);	
  56:.\main.c      ****         UART_1_WriteTxData(bstate);
  57:.\main.c      ****         CyDelay(j);	
  58:.\main.c      ****         /* Place your application code here. 
  59:.\main.c      ****         if (UART_1_GetRxBufferSize() > 0) {
  60:.\main.c      ****             uint8 c = UART_1_GetChar();
  61:.\main.c      ****             UART_1_PutChar(c);
  62:.\main.c      ****             Control_Reg_1_Write(c);
  63:.\main.c      ****         }*/
  64:.\main.c      ****     }
  65:.\main.c      **** }
  66:.\main.c      **** 
  67:.\main.c      **** 
  68:.\main.c      **** void R_XADC()
  69:.\main.c      **** {
  27              		.loc 1 69 0
  28              		.cfi_startproc
  29              		@ args = 0, pretend = 0, frame = 0
  30              		@ frame_needed = 0, uses_anonymous_args = 0
  31 0000 08B5     		push	{r3, lr}
  32              		.cfi_def_cfa_offset 8
  33              		.cfi_offset 3, -8
  34              		.cfi_offset 14, -4
  70:.\main.c      ****   if( ADC_SAR_1_IsEndConversion(ADC_SAR_1_WAIT_FOR_RESULT) )
  35              		.loc 1 70 0
  36 0002 0020     		movs	r0, #0
  37 0004 FFF7FEFF 		bl	ADC_SAR_1_IsEndConversion
  38              	.LVL0:
  39 0008 80B1     		cbz	r0, .L1
  71:.\main.c      **** 		{
  72:.\main.c      **** 			xadcResult = ADC_SAR_1_GetResult16();		// read the adc and assign the value adcResult
  40              		.loc 1 72 0
  41 000a FFF7FEFF 		bl	ADC_SAR_1_GetResult16
  42              	.LVL1:
ARM GAS  C:\Users\ologa\AppData\Local\Temp\ccqrg31h.s 			page 3


  43 000e 80B2     		uxth	r0, r0
  73:.\main.c      ****             xadcResult = (int)xadcResult;
  74:.\main.c      ****             xadcResult = (xadcResult)/5;              // adcResult is the integer scaling between 0
  44              		.loc 1 74 0
  45 0010 074B     		ldr	r3, .L5
  46 0012 A3FB0030 		umull	r3, r0, r3, r0
  47 0016 8008     		lsrs	r0, r0, #2
  48 0018 064B     		ldr	r3, .L5+4
  49 001a 1880     		strh	r0, [r3]	@ movhi
  75:.\main.c      ****    		if (xadcResult & 0x8000)
  76:.\main.c      ****    		{
  77:.\main.c      ****     		xadcResult = 0;       // ignore negative ADC results
  78:.\main.c      ****    		}
  79:.\main.c      ****    		else if (xadcResult >= 0xfff)
  50              		.loc 1 79 0
  51 001c 40F6FE73 		movw	r3, #4094
  52 0020 9842     		cmp	r0, r3
  53 0022 03D9     		bls	.L1
  80:.\main.c      ****    		{
  81:.\main.c      ****     		xadcResult = 0xfff;      // ignore high ADC results
  54              		.loc 1 81 0
  55 0024 40F6FF72 		movw	r2, #4095
  56 0028 024B     		ldr	r3, .L5+4
  57 002a 1A80     		strh	r2, [r3]	@ movhi
  58              	.L1:
  59 002c 08BD     		pop	{r3, pc}
  60              	.L6:
  61 002e 00BF     		.align	2
  62              	.L5:
  63 0030 CDCCCCCC 		.word	-858993459
  64 0034 00000000 		.word	.LANCHOR0
  65              		.cfi_endproc
  66              	.LFE64:
  67              		.size	R_XADC, .-R_XADC
  68              		.section	.text.R_YADC,"ax",%progbits
  69              		.align	2
  70              		.global	R_YADC
  71              		.thumb
  72              		.thumb_func
  73              		.type	R_YADC, %function
  74              	R_YADC:
  75              	.LFB65:
  82:.\main.c      ****    		}
  83:.\main.c      **** 		}
  84:.\main.c      **** }
  85:.\main.c      **** void R_YADC(){
  76              		.loc 1 85 0
  77              		.cfi_startproc
  78              		@ args = 0, pretend = 0, frame = 0
  79              		@ frame_needed = 0, uses_anonymous_args = 0
  80 0000 08B5     		push	{r3, lr}
  81              		.cfi_def_cfa_offset 8
  82              		.cfi_offset 3, -8
  83              		.cfi_offset 14, -4
  86:.\main.c      ****   if( ADC_SAR_2_IsEndConversion(ADC_SAR_2_WAIT_FOR_RESULT) )
  84              		.loc 1 86 0
  85 0002 0020     		movs	r0, #0
ARM GAS  C:\Users\ologa\AppData\Local\Temp\ccqrg31h.s 			page 4


  86 0004 FFF7FEFF 		bl	ADC_SAR_2_IsEndConversion
  87              	.LVL2:
  88 0008 80B1     		cbz	r0, .L7
  87:.\main.c      **** 		{
  88:.\main.c      **** 			yadcResult = ADC_SAR_2_GetResult16();		// read the adc and assign the value adcResult
  89              		.loc 1 88 0
  90 000a FFF7FEFF 		bl	ADC_SAR_2_GetResult16
  91              	.LVL3:
  92 000e 80B2     		uxth	r0, r0
  89:.\main.c      ****             yadcResult = (int)yadcResult;
  90:.\main.c      ****             yadcResult = (yadcResult)/5;              // adcResult is the integer scaling between 0
  93              		.loc 1 90 0
  94 0010 074B     		ldr	r3, .L11
  95 0012 A3FB0030 		umull	r3, r0, r3, r0
  96 0016 8008     		lsrs	r0, r0, #2
  97 0018 064B     		ldr	r3, .L11+4
  98 001a 5880     		strh	r0, [r3, #2]	@ movhi
  91:.\main.c      ****    		if (yadcResult & 0x8000)
  92:.\main.c      ****    		{
  93:.\main.c      ****     		yadcResult = 0;       // ignore negative ADC results
  94:.\main.c      ****    		}
  95:.\main.c      ****    		else if (yadcResult >= 0xfff)
  99              		.loc 1 95 0
 100 001c 40F6FE73 		movw	r3, #4094
 101 0020 9842     		cmp	r0, r3
 102 0022 03D9     		bls	.L7
  96:.\main.c      ****    		{
  97:.\main.c      ****     		yadcResult = 0xfff;      // ignore high ADC results
 103              		.loc 1 97 0
 104 0024 40F6FF72 		movw	r2, #4095
 105 0028 024B     		ldr	r3, .L11+4
 106 002a 5A80     		strh	r2, [r3, #2]	@ movhi
 107              	.L7:
 108 002c 08BD     		pop	{r3, pc}
 109              	.L12:
 110 002e 00BF     		.align	2
 111              	.L11:
 112 0030 CDCCCCCC 		.word	-858993459
 113 0034 00000000 		.word	.LANCHOR0
 114              		.cfi_endproc
 115              	.LFE65:
 116              		.size	R_YADC, .-R_YADC
 117              		.section	.text.C_XADC,"ax",%progbits
 118              		.align	2
 119              		.global	C_XADC
 120              		.thumb
 121              		.thumb_func
 122              		.type	C_XADC, %function
 123              	C_XADC:
 124              	.LFB66:
  98:.\main.c      ****    		}    										// delay in milliseconds
  99:.\main.c      **** 		}
 100:.\main.c      **** }
 101:.\main.c      **** 
 102:.\main.c      **** void C_XADC()
 103:.\main.c      **** {
 125              		.loc 1 103 0
ARM GAS  C:\Users\ologa\AppData\Local\Temp\ccqrg31h.s 			page 5


 126              		.cfi_startproc
 127              		@ args = 0, pretend = 0, frame = 0
 128              		@ frame_needed = 0, uses_anonymous_args = 0
 129              		@ link register save eliminated.
 104:.\main.c      ****     if (0 <= xadcResult && xadcResult < 100){
 130              		.loc 1 104 0
 131 0000 234B     		ldr	r3, .L23
 132 0002 1B88     		ldrh	r3, [r3]
 133 0004 632B     		cmp	r3, #99
 134 0006 02D8     		bhi	.L14
 105:.\main.c      ****             xsend = 'A';
 135              		.loc 1 105 0
 136 0008 4121     		movs	r1, #65
 137 000a 224A     		ldr	r2, .L23+4
 138 000c 1170     		strb	r1, [r2]
 139              	.L14:
 106:.\main.c      ****         }
 107:.\main.c      ****         if (100 <= xadcResult && xadcResult < 200){
 140              		.loc 1 107 0
 141 000e A3F16402 		sub	r2, r3, #100
 142 0012 92B2     		uxth	r2, r2
 143 0014 632A     		cmp	r2, #99
 144 0016 02D8     		bhi	.L15
 108:.\main.c      ****             xsend = 'B';
 145              		.loc 1 108 0
 146 0018 4221     		movs	r1, #66
 147 001a 1E4A     		ldr	r2, .L23+4
 148 001c 1170     		strb	r1, [r2]
 149              	.L15:
 109:.\main.c      ****         }
 110:.\main.c      ****         if (200 <= xadcResult && xadcResult < 300){
 150              		.loc 1 110 0
 151 001e A3F1C802 		sub	r2, r3, #200
 152 0022 92B2     		uxth	r2, r2
 153 0024 632A     		cmp	r2, #99
 154 0026 02D8     		bhi	.L16
 111:.\main.c      ****             xsend = 'C';
 155              		.loc 1 111 0
 156 0028 4321     		movs	r1, #67
 157 002a 1A4A     		ldr	r2, .L23+4
 158 002c 1170     		strb	r1, [r2]
 159              	.L16:
 112:.\main.c      ****         }
 113:.\main.c      ****         if (300 <= xadcResult && xadcResult < 400){
 160              		.loc 1 113 0
 161 002e A3F59672 		sub	r2, r3, #300
 162 0032 92B2     		uxth	r2, r2
 163 0034 632A     		cmp	r2, #99
 164 0036 02D8     		bhi	.L17
 114:.\main.c      ****             xsend = 'D';
 165              		.loc 1 114 0
 166 0038 4421     		movs	r1, #68
 167 003a 164A     		ldr	r2, .L23+4
 168 003c 1170     		strb	r1, [r2]
 169              	.L17:
 115:.\main.c      ****         }
 116:.\main.c      ****         if (400 <= xadcResult && xadcResult < 500){
ARM GAS  C:\Users\ologa\AppData\Local\Temp\ccqrg31h.s 			page 6


 170              		.loc 1 116 0
 171 003e A3F5C872 		sub	r2, r3, #400
 172 0042 92B2     		uxth	r2, r2
 173 0044 632A     		cmp	r2, #99
 174 0046 02D8     		bhi	.L18
 117:.\main.c      ****             xsend = 'E';
 175              		.loc 1 117 0
 176 0048 4521     		movs	r1, #69
 177 004a 124A     		ldr	r2, .L23+4
 178 004c 1170     		strb	r1, [r2]
 179              	.L18:
 118:.\main.c      ****         }
 119:.\main.c      ****         if (500 <= xadcResult && xadcResult < 600){
 180              		.loc 1 119 0
 181 004e A3F5FA72 		sub	r2, r3, #500
 182 0052 92B2     		uxth	r2, r2
 183 0054 632A     		cmp	r2, #99
 184 0056 02D8     		bhi	.L19
 120:.\main.c      ****             xsend = 'F';
 185              		.loc 1 120 0
 186 0058 4621     		movs	r1, #70
 187 005a 0E4A     		ldr	r2, .L23+4
 188 005c 1170     		strb	r1, [r2]
 189              	.L19:
 121:.\main.c      ****         }
 122:.\main.c      ****         if (600 <= xadcResult && xadcResult < 700){
 190              		.loc 1 122 0
 191 005e A3F51672 		sub	r2, r3, #600
 192 0062 92B2     		uxth	r2, r2
 193 0064 632A     		cmp	r2, #99
 194 0066 02D8     		bhi	.L20
 123:.\main.c      ****             xsend = 'G';
 195              		.loc 1 123 0
 196 0068 4721     		movs	r1, #71
 197 006a 0A4A     		ldr	r2, .L23+4
 198 006c 1170     		strb	r1, [r2]
 199              	.L20:
 124:.\main.c      ****         }
 125:.\main.c      ****         if (700 <= xadcResult && xadcResult < 800){
 200              		.loc 1 125 0
 201 006e A3F52F72 		sub	r2, r3, #700
 202 0072 92B2     		uxth	r2, r2
 203 0074 632A     		cmp	r2, #99
 204 0076 02D8     		bhi	.L21
 126:.\main.c      ****             xsend = 'H';
 205              		.loc 1 126 0
 206 0078 4821     		movs	r1, #72
 207 007a 064A     		ldr	r2, .L23+4
 208 007c 1170     		strb	r1, [r2]
 209              	.L21:
 127:.\main.c      ****         }
 128:.\main.c      ****         if (800 <= xadcResult && xadcResult < 900){
 210              		.loc 1 128 0
 211 007e A3F54873 		sub	r3, r3, #800
 212 0082 9BB2     		uxth	r3, r3
 213 0084 632B     		cmp	r3, #99
 214 0086 02D8     		bhi	.L13
ARM GAS  C:\Users\ologa\AppData\Local\Temp\ccqrg31h.s 			page 7


 129:.\main.c      ****             xsend = 'I';
 215              		.loc 1 129 0
 216 0088 4922     		movs	r2, #73
 217 008a 024B     		ldr	r3, .L23+4
 218 008c 1A70     		strb	r2, [r3]
 219              	.L13:
 220 008e 7047     		bx	lr
 221              	.L24:
 222              		.align	2
 223              	.L23:
 224 0090 00000000 		.word	.LANCHOR0
 225 0094 00000000 		.word	.LANCHOR1
 226              		.cfi_endproc
 227              	.LFE66:
 228              		.size	C_XADC, .-C_XADC
 229              		.section	.text.C_YADC,"ax",%progbits
 230              		.align	2
 231              		.global	C_YADC
 232              		.thumb
 233              		.thumb_func
 234              		.type	C_YADC, %function
 235              	C_YADC:
 236              	.LFB67:
 130:.\main.c      ****         }
 131:.\main.c      **** }
 132:.\main.c      **** 
 133:.\main.c      **** void C_YADC()
 134:.\main.c      **** {
 237              		.loc 1 134 0
 238              		.cfi_startproc
 239              		@ args = 0, pretend = 0, frame = 0
 240              		@ frame_needed = 0, uses_anonymous_args = 0
 241              		@ link register save eliminated.
 135:.\main.c      ****     if (0 <= yadcResult && yadcResult < 100){
 242              		.loc 1 135 0
 243 0000 234B     		ldr	r3, .L35
 244 0002 5B88     		ldrh	r3, [r3, #2]
 245 0004 632B     		cmp	r3, #99
 246 0006 02D8     		bhi	.L26
 136:.\main.c      ****             ysend = 'J';
 247              		.loc 1 136 0
 248 0008 4A21     		movs	r1, #74
 249 000a 224A     		ldr	r2, .L35+4
 250 000c 5170     		strb	r1, [r2, #1]
 251              	.L26:
 137:.\main.c      ****         }
 138:.\main.c      ****         if (100 <= yadcResult && yadcResult < 200){
 252              		.loc 1 138 0
 253 000e A3F16402 		sub	r2, r3, #100
 254 0012 92B2     		uxth	r2, r2
 255 0014 632A     		cmp	r2, #99
 256 0016 02D8     		bhi	.L27
 139:.\main.c      ****             ysend = 'K';
 257              		.loc 1 139 0
 258 0018 4B21     		movs	r1, #75
 259 001a 1E4A     		ldr	r2, .L35+4
 260 001c 5170     		strb	r1, [r2, #1]
ARM GAS  C:\Users\ologa\AppData\Local\Temp\ccqrg31h.s 			page 8


 261              	.L27:
 140:.\main.c      ****         }
 141:.\main.c      ****         if (200 <= yadcResult && yadcResult < 300){
 262              		.loc 1 141 0
 263 001e A3F1C802 		sub	r2, r3, #200
 264 0022 92B2     		uxth	r2, r2
 265 0024 632A     		cmp	r2, #99
 266 0026 02D8     		bhi	.L28
 142:.\main.c      ****             ysend = 'L';
 267              		.loc 1 142 0
 268 0028 4C21     		movs	r1, #76
 269 002a 1A4A     		ldr	r2, .L35+4
 270 002c 5170     		strb	r1, [r2, #1]
 271              	.L28:
 143:.\main.c      ****         }
 144:.\main.c      ****         if (300 <= yadcResult && yadcResult < 400){
 272              		.loc 1 144 0
 273 002e A3F59672 		sub	r2, r3, #300
 274 0032 92B2     		uxth	r2, r2
 275 0034 632A     		cmp	r2, #99
 276 0036 02D8     		bhi	.L29
 145:.\main.c      ****             ysend = 'M';
 277              		.loc 1 145 0
 278 0038 4D21     		movs	r1, #77
 279 003a 164A     		ldr	r2, .L35+4
 280 003c 5170     		strb	r1, [r2, #1]
 281              	.L29:
 146:.\main.c      ****         }
 147:.\main.c      ****         if (400 <= yadcResult && yadcResult < 500){
 282              		.loc 1 147 0
 283 003e A3F5C872 		sub	r2, r3, #400
 284 0042 92B2     		uxth	r2, r2
 285 0044 632A     		cmp	r2, #99
 286 0046 02D8     		bhi	.L30
 148:.\main.c      ****             ysend = 'N';
 287              		.loc 1 148 0
 288 0048 4E21     		movs	r1, #78
 289 004a 124A     		ldr	r2, .L35+4
 290 004c 5170     		strb	r1, [r2, #1]
 291              	.L30:
 149:.\main.c      ****         }
 150:.\main.c      ****         if (500 <= yadcResult && yadcResult < 600){
 292              		.loc 1 150 0
 293 004e A3F5FA72 		sub	r2, r3, #500
 294 0052 92B2     		uxth	r2, r2
 295 0054 632A     		cmp	r2, #99
 296 0056 02D8     		bhi	.L31
 151:.\main.c      ****             ysend = 'O';
 297              		.loc 1 151 0
 298 0058 4F21     		movs	r1, #79
 299 005a 0E4A     		ldr	r2, .L35+4
 300 005c 5170     		strb	r1, [r2, #1]
 301              	.L31:
 152:.\main.c      ****         }
 153:.\main.c      ****         if (600 <= yadcResult && yadcResult < 700){
 302              		.loc 1 153 0
 303 005e A3F51672 		sub	r2, r3, #600
ARM GAS  C:\Users\ologa\AppData\Local\Temp\ccqrg31h.s 			page 9


 304 0062 92B2     		uxth	r2, r2
 305 0064 632A     		cmp	r2, #99
 306 0066 02D8     		bhi	.L32
 154:.\main.c      ****             ysend = 'P';
 307              		.loc 1 154 0
 308 0068 5021     		movs	r1, #80
 309 006a 0A4A     		ldr	r2, .L35+4
 310 006c 5170     		strb	r1, [r2, #1]
 311              	.L32:
 155:.\main.c      ****         }
 156:.\main.c      ****         if (700 <= yadcResult && yadcResult < 800){
 312              		.loc 1 156 0
 313 006e A3F52F72 		sub	r2, r3, #700
 314 0072 92B2     		uxth	r2, r2
 315 0074 632A     		cmp	r2, #99
 316 0076 02D8     		bhi	.L33
 157:.\main.c      ****             ysend = 'Q';
 317              		.loc 1 157 0
 318 0078 5121     		movs	r1, #81
 319 007a 064A     		ldr	r2, .L35+4
 320 007c 5170     		strb	r1, [r2, #1]
 321              	.L33:
 158:.\main.c      ****         }
 159:.\main.c      ****         if (800 <= yadcResult && yadcResult < 900){
 322              		.loc 1 159 0
 323 007e A3F54873 		sub	r3, r3, #800
 324 0082 9BB2     		uxth	r3, r3
 325 0084 632B     		cmp	r3, #99
 326 0086 02D8     		bhi	.L25
 160:.\main.c      ****             ysend = 'R';
 327              		.loc 1 160 0
 328 0088 5222     		movs	r2, #82
 329 008a 024B     		ldr	r3, .L35+4
 330 008c 5A70     		strb	r2, [r3, #1]
 331              	.L25:
 332 008e 7047     		bx	lr
 333              	.L36:
 334              		.align	2
 335              	.L35:
 336 0090 00000000 		.word	.LANCHOR0
 337 0094 00000000 		.word	.LANCHOR1
 338              		.cfi_endproc
 339              	.LFE67:
 340              		.size	C_YADC, .-C_YADC
 341              		.section	.text.C_B,"ax",%progbits
 342              		.align	2
 343              		.global	C_B
 344              		.thumb
 345              		.thumb_func
 346              		.type	C_B, %function
 347              	C_B:
 348              	.LFB68:
 161:.\main.c      ****         }
 162:.\main.c      **** }
 163:.\main.c      **** 
 164:.\main.c      **** void C_B(){
 349              		.loc 1 164 0
ARM GAS  C:\Users\ologa\AppData\Local\Temp\ccqrg31h.s 			page 10


 350              		.cfi_startproc
 351              		@ args = 0, pretend = 0, frame = 0
 352              		@ frame_needed = 0, uses_anonymous_args = 0
 353 0000 08B5     		push	{r3, lr}
 354              		.cfi_def_cfa_offset 8
 355              		.cfi_offset 3, -8
 356              		.cfi_offset 14, -4
 165:.\main.c      ****     if (B1_Read()==0){
 357              		.loc 1 165 0
 358 0002 FFF7FEFF 		bl	B1_Read
 359              	.LVL4:
 360 0006 18B9     		cbnz	r0, .L38
 166:.\main.c      ****         bstate = 'S';
 361              		.loc 1 166 0
 362 0008 5322     		movs	r2, #83
 363 000a 0E4B     		ldr	r3, .L44
 364 000c 1A71     		strb	r2, [r3, #4]
 365 000e 08BD     		pop	{r3, pc}
 366              	.L38:
 167:.\main.c      ****     }
 168:.\main.c      ****     else if (B2_Read()==0){
 367              		.loc 1 168 0
 368 0010 FFF7FEFF 		bl	B2_Read
 369              	.LVL5:
 370 0014 18B9     		cbnz	r0, .L40
 169:.\main.c      ****         bstate = 'T';
 371              		.loc 1 169 0
 372 0016 5422     		movs	r2, #84
 373 0018 0A4B     		ldr	r3, .L44
 374 001a 1A71     		strb	r2, [r3, #4]
 375 001c 08BD     		pop	{r3, pc}
 376              	.L40:
 170:.\main.c      ****     }
 171:.\main.c      ****     else if (B3_Read()==0){
 377              		.loc 1 171 0
 378 001e FFF7FEFF 		bl	B3_Read
 379              	.LVL6:
 380 0022 18B9     		cbnz	r0, .L41
 172:.\main.c      ****         bstate = 'U';
 381              		.loc 1 172 0
 382 0024 5522     		movs	r2, #85
 383 0026 074B     		ldr	r3, .L44
 384 0028 1A71     		strb	r2, [r3, #4]
 385 002a 08BD     		pop	{r3, pc}
 386              	.L41:
 173:.\main.c      ****     }
 174:.\main.c      ****     else if (B4_Read()==0){
 387              		.loc 1 174 0
 388 002c FFF7FEFF 		bl	B4_Read
 389              	.LVL7:
 390 0030 18B9     		cbnz	r0, .L42
 175:.\main.c      ****         bstate = 'V';
 391              		.loc 1 175 0
 392 0032 5622     		movs	r2, #86
 393 0034 034B     		ldr	r3, .L44
 394 0036 1A71     		strb	r2, [r3, #4]
 395 0038 08BD     		pop	{r3, pc}
ARM GAS  C:\Users\ologa\AppData\Local\Temp\ccqrg31h.s 			page 11


 396              	.L42:
 176:.\main.c      ****     }
 177:.\main.c      ****     else{
 178:.\main.c      ****         bstate='W';
 397              		.loc 1 178 0
 398 003a 5722     		movs	r2, #87
 399 003c 014B     		ldr	r3, .L44
 400 003e 1A71     		strb	r2, [r3, #4]
 401 0040 08BD     		pop	{r3, pc}
 402              	.L45:
 403 0042 00BF     		.align	2
 404              	.L44:
 405 0044 00000000 		.word	.LANCHOR0
 406              		.cfi_endproc
 407              	.LFE68:
 408              		.size	C_B, .-C_B
 409              		.section	.text.main,"ax",%progbits
 410              		.align	2
 411              		.global	main
 412              		.thumb
 413              		.thumb_func
 414              		.type	main, %function
 415              	main:
 416              	.LFB63:
  28:.\main.c      ****     CyGlobalIntEnable; /* Enable global interrupts. */
 417              		.loc 1 28 0
 418              		.cfi_startproc
 419              		@ args = 0, pretend = 0, frame = 0
 420              		@ frame_needed = 0, uses_anonymous_args = 0
 421 0000 10B5     		push	{r4, lr}
 422              		.cfi_def_cfa_offset 8
 423              		.cfi_offset 4, -8
 424              		.cfi_offset 14, -4
  29:.\main.c      ****     
 425              		.loc 1 29 0
 426              	@ 29 ".\main.c" 1
 427 0002 62B6     		CPSIE   i
 428              	@ 0 "" 2
  33:.\main.c      ****     UART_1_Start();
 429              		.loc 1 33 0
 430              		.thumb
 431 0004 FFF7FEFF 		bl	UART_1_Init
 432              	.LVL8:
  34:.\main.c      ****     unsigned char j = 10;
 433              		.loc 1 34 0
 434 0008 FFF7FEFF 		bl	UART_1_Start
 435              	.LVL9:
  40:.\main.c      ****     ADC_SAR_2_Start();
 436              		.loc 1 40 0
 437 000c FFF7FEFF 		bl	ADC_SAR_1_Start
 438              	.LVL10:
  41:.\main.c      ****     ADC_SAR_1_StartConvert();
 439              		.loc 1 41 0
 440 0010 FFF7FEFF 		bl	ADC_SAR_2_Start
 441              	.LVL11:
  42:.\main.c      ****     ADC_SAR_2_StartConvert();
 442              		.loc 1 42 0
ARM GAS  C:\Users\ologa\AppData\Local\Temp\ccqrg31h.s 			page 12


 443 0014 FFF7FEFF 		bl	ADC_SAR_1_StartConvert
 444              	.LVL12:
  43:.\main.c      ****     //UART_1_PutString("Hello World!");
 445              		.loc 1 43 0
 446 0018 FFF7FEFF 		bl	ADC_SAR_2_StartConvert
 447              	.LVL13:
 448              	.L47:
  47:.\main.c      ****         R_YADC();
 449              		.loc 1 47 0 discriminator 1
 450 001c FFF7FEFF 		bl	R_XADC
 451              	.LVL14:
  48:.\main.c      ****         C_XADC();
 452              		.loc 1 48 0 discriminator 1
 453 0020 FFF7FEFF 		bl	R_YADC
 454              	.LVL15:
  49:.\main.c      ****         C_YADC();
 455              		.loc 1 49 0 discriminator 1
 456 0024 FFF7FEFF 		bl	C_XADC
 457              	.LVL16:
  50:.\main.c      ****         C_B();
 458              		.loc 1 50 0 discriminator 1
 459 0028 FFF7FEFF 		bl	C_YADC
 460              	.LVL17:
  51:.\main.c      ****         UART_1_WriteTxData(xsend);
 461              		.loc 1 51 0 discriminator 1
 462 002c FFF7FEFF 		bl	C_B
 463              	.LVL18:
  52:.\main.c      ****         CyDelay(j);	
 464              		.loc 1 52 0 discriminator 1
 465 0030 0A4C     		ldr	r4, .L49
 466 0032 2078     		ldrb	r0, [r4]	@ zero_extendqisi2
 467 0034 FFF7FEFF 		bl	UART_1_WriteTxData
 468              	.LVL19:
  53:.\main.c      ****         UART_1_WriteTxData(ysend);
 469              		.loc 1 53 0 discriminator 1
 470 0038 0A20     		movs	r0, #10
 471 003a FFF7FEFF 		bl	CyDelay
 472              	.LVL20:
  54:.\main.c      ****         CyDelay(j);	
 473              		.loc 1 54 0 discriminator 1
 474 003e 6078     		ldrb	r0, [r4, #1]	@ zero_extendqisi2
 475 0040 FFF7FEFF 		bl	UART_1_WriteTxData
 476              	.LVL21:
  55:.\main.c      ****         UART_1_WriteTxData(bstate);
 477              		.loc 1 55 0 discriminator 1
 478 0044 0A20     		movs	r0, #10
 479 0046 FFF7FEFF 		bl	CyDelay
 480              	.LVL22:
  56:.\main.c      ****         CyDelay(j);	
 481              		.loc 1 56 0 discriminator 1
 482 004a 054B     		ldr	r3, .L49+4
 483 004c 1879     		ldrb	r0, [r3, #4]	@ zero_extendqisi2
 484 004e FFF7FEFF 		bl	UART_1_WriteTxData
 485              	.LVL23:
  57:.\main.c      ****         /* Place your application code here. 
 486              		.loc 1 57 0 discriminator 1
 487 0052 0A20     		movs	r0, #10
ARM GAS  C:\Users\ologa\AppData\Local\Temp\ccqrg31h.s 			page 13


 488 0054 FFF7FEFF 		bl	CyDelay
 489              	.LVL24:
  64:.\main.c      **** }
 490              		.loc 1 64 0 discriminator 1
 491 0058 E0E7     		b	.L47
 492              	.L50:
 493 005a 00BF     		.align	2
 494              	.L49:
 495 005c 00000000 		.word	.LANCHOR1
 496 0060 00000000 		.word	.LANCHOR0
 497              		.cfi_endproc
 498              	.LFE63:
 499              		.size	main, .-main
 500              		.global	bstate
 501              		.global	ysend
 502              		.global	xsend
 503              		.global	yadcResult
 504              		.global	xadcResult
 505              		.data
 506              		.set	.LANCHOR1,. + 0
 507              		.type	xsend, %object
 508              		.size	xsend, 1
 509              	xsend:
 510 0000 04       		.byte	4
 511              		.type	ysend, %object
 512              		.size	ysend, 1
 513              	ysend:
 514 0001 04       		.byte	4
 515              		.bss
 516              		.align	1
 517              		.set	.LANCHOR0,. + 0
 518              		.type	xadcResult, %object
 519              		.size	xadcResult, 2
 520              	xadcResult:
 521 0000 0000     		.space	2
 522              		.type	yadcResult, %object
 523              		.size	yadcResult, 2
 524              	yadcResult:
 525 0002 0000     		.space	2
 526              		.type	bstate, %object
 527              		.size	bstate, 1
 528              	bstate:
 529 0004 00       		.space	1
 530 0005 00       		.text
 531              	.Letext0:
 532              		.file 2 "c:\\program files (x86)\\cypress\\psoc creator\\3.3\\psoc creator\\import\\gnu\\arm\\4.9.
 533              		.file 3 "c:\\program files (x86)\\cypress\\psoc creator\\3.3\\psoc creator\\import\\gnu\\arm\\4.9.
 534              		.file 4 "Generated_Source\\PSoC5/cytypes.h"
 535              		.file 5 "Generated_Source\\PSoC5/core_cm3.h"
 536              		.file 6 "Generated_Source\\PSoC5/ADC_SAR_1.h"
 537              		.file 7 "Generated_Source\\PSoC5/ADC_SAR_2.h"
 538              		.file 8 "Generated_Source\\PSoC5/B1.h"
 539              		.file 9 "Generated_Source\\PSoC5/B2.h"
 540              		.file 10 "Generated_Source\\PSoC5/B3.h"
 541              		.file 11 "Generated_Source\\PSoC5/B4.h"
 542              		.file 12 "Generated_Source\\PSoC5/UART_1.h"
 543              		.file 13 "Generated_Source\\PSoC5/CyLib.h"
ARM GAS  C:\Users\ologa\AppData\Local\Temp\ccqrg31h.s 			page 14

